

Microchip MPLAB XC8 Assembler V2.41 build 20230208172133 
                                                                                               Thu Jul 06 12:01:32 2023

Microchip MPLAB XC8 C Compiler v2.41 (Free license) build 20230208172133 Og1 
     1                           	processor	16LF1936
     2                           	pagewidth 120
     3                           	opt	flic
     4                           	psect	cinit,global,class=CODE,merge=1,delta=2
     5                           	psect	bssCOMMON,global,class=COMMON,space=1,delta=1,noexec
     6                           	psect	bssBANK0,global,class=BANK0,space=1,delta=1,noexec
     7                           	psect	clrtext,global,class=CODE,delta=2
     8                           	psect	cstackCOMMON,global,class=COMMON,space=1,delta=1,noexec
     9                           	psect	cstackBANK0,global,class=BANK0,space=1,delta=1,noexec
    10                           	psect	maintext,global,class=CODE,merge=1,split=1,delta=2
    11                           	psect	text1,local,class=CODE,merge=1,delta=2
    12                           	psect	text2,local,class=CODE,merge=1,delta=2
    13                           	psect	text3,local,class=CODE,merge=1,delta=2
    14                           	psect	text4,local,class=CODE,merge=1,delta=2
    15                           	psect	text5,local,class=CODE,merge=1,delta=2
    16                           	psect	text6,local,class=CODE,merge=1,delta=2
    17                           	psect	text7,local,class=CODE,merge=1,delta=2
    18                           	psect	text8,local,class=CODE,merge=1,delta=2
    19                           	psect	text9,local,class=CODE,merge=1,inline,delta=2
    20                           	psect	text10,local,class=CODE,merge=1,inline,delta=2
    21                           	psect	text11,local,class=CODE,merge=1,delta=2
    22                           	psect	text12,local,class=CODE,merge=1,delta=2
    23                           	psect	text13,local,class=CODE,merge=1,delta=2
    24                           	psect	text14,local,class=CODE,merge=1,delta=2
    25                           	psect	text15,local,class=CODE,merge=1,inline,delta=2
    26                           	psect	text16,local,class=CODE,merge=1,inline,delta=2
    27                           	psect	intentry,global,class=CODE,delta=2
    28                           	psect	text18,local,class=CODE,merge=1,delta=2
    29                           	psect	text19,local,class=CODE,merge=1,delta=2
    30                           	psect	text20,local,class=CODE,merge=1,delta=2
    31                           	psect	text21,local,class=CODE,merge=1,delta=2
    32                           	psect	text22,local,class=CODE,merge=1,delta=2
    33                           	psect	text23,local,class=CODE,merge=1,inline,delta=2
    34                           	psect	text24,local,class=CODE,merge=1,inline,delta=2
    35                           	psect	text25,local,class=CODE,merge=1,delta=2
    36                           	psect	text26,local,class=CODE,merge=1,delta=2
    37                           	psect	text27,local,class=CODE,merge=1,inline,delta=2
    38                           	psect	text28,local,class=CODE,merge=1,inline,delta=2
    39                           	psect	text29,local,class=CODE,merge=1,inline,delta=2
    40                           	psect	text30,local,class=CODE,merge=1,inline,delta=2
    41                           	psect	text31,local,class=CODE,merge=1,inline,delta=2
    42                           	psect	text32,local,class=CODE,merge=1,delta=2
    43                           	psect	text33,local,class=CODE,merge=1,delta=2
    44                           	psect	text34,local,class=CODE,merge=1,delta=2
    45                           	psect	text35,local,class=CODE,merge=1,inline,delta=2
    46                           	psect	config,global,abs,ovrld,class=CONFIG,space=4,delta=2,noexec
    47                           	dabs	1,0x7E,2
    48     0000                     
    49                           ; Version 2.40
    50                           ; Generated 17/11/2021 GMT
    51                           ; 
    52                           ; Copyright © 2021, Microchip Technology Inc. and its subsidiaries ("Microchip")
    53                           ; All rights reserved.
    54                           ; 
    55                           ; This software is developed by Microchip Technology Inc. and its subsidiaries ("Microch
      +                          ip").
    56                           ; 
    57                           ; Redistribution and use in source and binary forms, with or without modification, are
    58                           ; permitted provided that the following conditions are met:
    59                           ; 
    60                           ;     1. Redistributions of source code must retain the above copyright notice, this lis
      +                          t of
    61                           ;        conditions and the following disclaimer.
    62                           ; 
    63                           ;     2. Redistributions in binary form must reproduce the above copyright notice, this 
      +                          list
    64                           ;        of conditions and the following disclaimer in the documentation and/or other
    65                           ;        materials provided with the distribution. Publication is not required when
    66                           ;        this file is used in an embedded application.
    67                           ; 
    68                           ;     3. Microchip's name may not be used to endorse or promote products derived from th
      +                          is
    69                           ;        software without specific prior written permission.
    70                           ; 
    71                           ; THIS SOFTWARE IS PROVIDED BY MICROCHIP "AS IS" AND ANY EXPRESS OR IMPLIED WARRANTIES,
    72                           ; INCLUDING, BUT NOT LIMITED TO, THE IMPLIED WARRANTIES OF MERCHANTABILITY AND FITNESS F
      +                          OR
    73                           ; PURPOSE ARE DISCLAIMED.  IN NO EVENT SHALL MICROCHIP BE LIABLE FOR ANY DIRECT, INDIREC
      +                          T,
    74                           ; INCIDENTAL, SPECIAL, EXEMPLARY, OR CONSEQUENTIAL DAMAGES (INCLUDING BUT NOT LIMITED TO
    75                           ; PROCUREMENT OF SUBSTITUTE GOODS OR SERVICES; LOSS OF USE, DATA OR PROFITS; OR BUSINESS
    76                           ; INTERRUPTION) HOWSOEVER CAUSED AND ON ANY THEORY OF LIABILITY, WHETHER IN CONTRACT, ST
      +                          RICT
    77                           ; LIABILITY, OR TORT (INCLUDING NEGLIGENCE OR OTHERWISE) ARISING IN ANY WAY OUT OF THE U
      +                          SE OF
    78                           ; THIS SOFTWARE, EVEN IF ADVISED OF THE POSSIBILITY OF SUCH DAMAGE.
    79                           ; 
    80                           ; 
    81                           ; Code-generator required, PIC16LF1936 Definitions
    82                           ; 
    83                           ; SFR Addresses
    84     0000                     	;# 
    85     0001                     	;# 
    86     0002                     	;# 
    87     0003                     	;# 
    88     0004                     	;# 
    89     0005                     	;# 
    90     0006                     	;# 
    91     0007                     	;# 
    92     0008                     	;# 
    93     0009                     	;# 
    94     000A                     	;# 
    95     000B                     	;# 
    96     000C                     	;# 
    97     000D                     	;# 
    98     000E                     	;# 
    99     0010                     	;# 
   100     0011                     	;# 
   101     0012                     	;# 
   102     0013                     	;# 
   103     0015                     	;# 
   104     0016                     	;# 
   105     0016                     	;# 
   106     0017                     	;# 
   107     0018                     	;# 
   108     0019                     	;# 
   109     001A                     	;# 
   110     001B                     	;# 
   111     001C                     	;# 
   112     001E                     	;# 
   113     001F                     	;# 
   114     008C                     	;# 
   115     008D                     	;# 
   116     008E                     	;# 
   117     0090                     	;# 
   118     0091                     	;# 
   119     0092                     	;# 
   120     0093                     	;# 
   121     0095                     	;# 
   122     0096                     	;# 
   123     0097                     	;# 
   124     0098                     	;# 
   125     0099                     	;# 
   126     009A                     	;# 
   127     009B                     	;# 
   128     009B                     	;# 
   129     009C                     	;# 
   130     009D                     	;# 
   131     009E                     	;# 
   132     010C                     	;# 
   133     010D                     	;# 
   134     010E                     	;# 
   135     0110                     	;# 
   136     0111                     	;# 
   137     0112                     	;# 
   138     0113                     	;# 
   139     0114                     	;# 
   140     0115                     	;# 
   141     0116                     	;# 
   142     0117                     	;# 
   143     0118                     	;# 
   144     0119                     	;# 
   145     011A                     	;# 
   146     011B                     	;# 
   147     011D                     	;# 
   148     018C                     	;# 
   149     018D                     	;# 
   150     0191                     	;# 
   151     0191                     	;# 
   152     0192                     	;# 
   153     0193                     	;# 
   154     0193                     	;# 
   155     0193                     	;# 
   156     0194                     	;# 
   157     0195                     	;# 
   158     0196                     	;# 
   159     0199                     	;# 
   160     019A                     	;# 
   161     019B                     	;# 
   162     019B                     	;# 
   163     019B                     	;# 
   164     019B                     	;# 
   165     019C                     	;# 
   166     019C                     	;# 
   167     019D                     	;# 
   168     019E                     	;# 
   169     019F                     	;# 
   170     020D                     	;# 
   171     0210                     	;# 
   172     0211                     	;# 
   173     0212                     	;# 
   174     0213                     	;# 
   175     0214                     	;# 
   176     0215                     	;# 
   177     0215                     	;# 
   178     0216                     	;# 
   179     0217                     	;# 
   180     0291                     	;# 
   181     0291                     	;# 
   182     0292                     	;# 
   183     0293                     	;# 
   184     0294                     	;# 
   185     0295                     	;# 
   186     0295                     	;# 
   187     0296                     	;# 
   188     0298                     	;# 
   189     0298                     	;# 
   190     0299                     	;# 
   191     029A                     	;# 
   192     029B                     	;# 
   193     029C                     	;# 
   194     029C                     	;# 
   195     029D                     	;# 
   196     029E                     	;# 
   197     029F                     	;# 
   198     0311                     	;# 
   199     0311                     	;# 
   200     0312                     	;# 
   201     0313                     	;# 
   202     0314                     	;# 
   203     0315                     	;# 
   204     0315                     	;# 
   205     0316                     	;# 
   206     0318                     	;# 
   207     0318                     	;# 
   208     0319                     	;# 
   209     031A                     	;# 
   210     031C                     	;# 
   211     031C                     	;# 
   212     031D                     	;# 
   213     031E                     	;# 
   214     0394                     	;# 
   215     0395                     	;# 
   216     0396                     	;# 
   217     0415                     	;# 
   218     0416                     	;# 
   219     0417                     	;# 
   220     041C                     	;# 
   221     041D                     	;# 
   222     041E                     	;# 
   223     0791                     	;# 
   224     0792                     	;# 
   225     0793                     	;# 
   226     0794                     	;# 
   227     0795                     	;# 
   228     0798                     	;# 
   229     0799                     	;# 
   230     07A0                     	;# 
   231     07A1                     	;# 
   232     07A3                     	;# 
   233     07A4                     	;# 
   234     07A6                     	;# 
   235     07A7                     	;# 
   236     07A9                     	;# 
   237     07AA                     	;# 
   238     0FE4                     	;# 
   239     0FE5                     	;# 
   240     0FE6                     	;# 
   241     0FE7                     	;# 
   242     0FE8                     	;# 
   243     0FE9                     	;# 
   244     0FEA                     	;# 
   245     0FEB                     	;# 
   246     0FED                     	;# 
   247     0FEE                     	;# 
   248     0FEF                     	;# 
   249     0000                     	;# 
   250     0001                     	;# 
   251     0002                     	;# 
   252     0003                     	;# 
   253     0004                     	;# 
   254     0005                     	;# 
   255     0006                     	;# 
   256     0007                     	;# 
   257     0008                     	;# 
   258     0009                     	;# 
   259     000A                     	;# 
   260     000B                     	;# 
   261     000C                     	;# 
   262     000D                     	;# 
   263     000E                     	;# 
   264     0010                     	;# 
   265     0011                     	;# 
   266     0012                     	;# 
   267     0013                     	;# 
   268     0015                     	;# 
   269     0016                     	;# 
   270     0016                     	;# 
   271     0017                     	;# 
   272     0018                     	;# 
   273     0019                     	;# 
   274     001A                     	;# 
   275     001B                     	;# 
   276     001C                     	;# 
   277     001E                     	;# 
   278     001F                     	;# 
   279     008C                     	;# 
   280     008D                     	;# 
   281     008E                     	;# 
   282     0090                     	;# 
   283     0091                     	;# 
   284     0092                     	;# 
   285     0093                     	;# 
   286     0095                     	;# 
   287     0096                     	;# 
   288     0097                     	;# 
   289     0098                     	;# 
   290     0099                     	;# 
   291     009A                     	;# 
   292     009B                     	;# 
   293     009B                     	;# 
   294     009C                     	;# 
   295     009D                     	;# 
   296     009E                     	;# 
   297     010C                     	;# 
   298     010D                     	;# 
   299     010E                     	;# 
   300     0110                     	;# 
   301     0111                     	;# 
   302     0112                     	;# 
   303     0113                     	;# 
   304     0114                     	;# 
   305     0115                     	;# 
   306     0116                     	;# 
   307     0117                     	;# 
   308     0118                     	;# 
   309     0119                     	;# 
   310     011A                     	;# 
   311     011B                     	;# 
   312     011D                     	;# 
   313     018C                     	;# 
   314     018D                     	;# 
   315     0191                     	;# 
   316     0191                     	;# 
   317     0192                     	;# 
   318     0193                     	;# 
   319     0193                     	;# 
   320     0193                     	;# 
   321     0194                     	;# 
   322     0195                     	;# 
   323     0196                     	;# 
   324     0199                     	;# 
   325     019A                     	;# 
   326     019B                     	;# 
   327     019B                     	;# 
   328     019B                     	;# 
   329     019B                     	;# 
   330     019C                     	;# 
   331     019C                     	;# 
   332     019D                     	;# 
   333     019E                     	;# 
   334     019F                     	;# 
   335     020D                     	;# 
   336     0210                     	;# 
   337     0211                     	;# 
   338     0212                     	;# 
   339     0213                     	;# 
   340     0214                     	;# 
   341     0215                     	;# 
   342     0215                     	;# 
   343     0216                     	;# 
   344     0217                     	;# 
   345     0291                     	;# 
   346     0291                     	;# 
   347     0292                     	;# 
   348     0293                     	;# 
   349     0294                     	;# 
   350     0295                     	;# 
   351     0295                     	;# 
   352     0296                     	;# 
   353     0298                     	;# 
   354     0298                     	;# 
   355     0299                     	;# 
   356     029A                     	;# 
   357     029B                     	;# 
   358     029C                     	;# 
   359     029C                     	;# 
   360     029D                     	;# 
   361     029E                     	;# 
   362     029F                     	;# 
   363     0311                     	;# 
   364     0311                     	;# 
   365     0312                     	;# 
   366     0313                     	;# 
   367     0314                     	;# 
   368     0315                     	;# 
   369     0315                     	;# 
   370     0316                     	;# 
   371     0318                     	;# 
   372     0318                     	;# 
   373     0319                     	;# 
   374     031A                     	;# 
   375     031C                     	;# 
   376     031C                     	;# 
   377     031D                     	;# 
   378     031E                     	;# 
   379     0394                     	;# 
   380     0395                     	;# 
   381     0396                     	;# 
   382     0415                     	;# 
   383     0416                     	;# 
   384     0417                     	;# 
   385     041C                     	;# 
   386     041D                     	;# 
   387     041E                     	;# 
   388     0791                     	;# 
   389     0792                     	;# 
   390     0793                     	;# 
   391     0794                     	;# 
   392     0795                     	;# 
   393     0798                     	;# 
   394     0799                     	;# 
   395     07A0                     	;# 
   396     07A1                     	;# 
   397     07A3                     	;# 
   398     07A4                     	;# 
   399     07A6                     	;# 
   400     07A7                     	;# 
   401     07A9                     	;# 
   402     07AA                     	;# 
   403     0FE4                     	;# 
   404     0FE5                     	;# 
   405     0FE6                     	;# 
   406     0FE7                     	;# 
   407     0FE8                     	;# 
   408     0FE9                     	;# 
   409     0FEA                     	;# 
   410     0FEB                     	;# 
   411     0FED                     	;# 
   412     0FEE                     	;# 
   413     0FEF                     	;# 
   414     0000                     	;# 
   415     0001                     	;# 
   416     0002                     	;# 
   417     0003                     	;# 
   418     0004                     	;# 
   419     0005                     	;# 
   420     0006                     	;# 
   421     0007                     	;# 
   422     0008                     	;# 
   423     0009                     	;# 
   424     000A                     	;# 
   425     000B                     	;# 
   426     000C                     	;# 
   427     000D                     	;# 
   428     000E                     	;# 
   429     0010                     	;# 
   430     0011                     	;# 
   431     0012                     	;# 
   432     0013                     	;# 
   433     0015                     	;# 
   434     0016                     	;# 
   435     0016                     	;# 
   436     0017                     	;# 
   437     0018                     	;# 
   438     0019                     	;# 
   439     001A                     	;# 
   440     001B                     	;# 
   441     001C                     	;# 
   442     001E                     	;# 
   443     001F                     	;# 
   444     008C                     	;# 
   445     008D                     	;# 
   446     008E                     	;# 
   447     0090                     	;# 
   448     0091                     	;# 
   449     0092                     	;# 
   450     0093                     	;# 
   451     0095                     	;# 
   452     0096                     	;# 
   453     0097                     	;# 
   454     0098                     	;# 
   455     0099                     	;# 
   456     009A                     	;# 
   457     009B                     	;# 
   458     009B                     	;# 
   459     009C                     	;# 
   460     009D                     	;# 
   461     009E                     	;# 
   462     010C                     	;# 
   463     010D                     	;# 
   464     010E                     	;# 
   465     0110                     	;# 
   466     0111                     	;# 
   467     0112                     	;# 
   468     0113                     	;# 
   469     0114                     	;# 
   470     0115                     	;# 
   471     0116                     	;# 
   472     0117                     	;# 
   473     0118                     	;# 
   474     0119                     	;# 
   475     011A                     	;# 
   476     011B                     	;# 
   477     011D                     	;# 
   478     018C                     	;# 
   479     018D                     	;# 
   480     0191                     	;# 
   481     0191                     	;# 
   482     0192                     	;# 
   483     0193                     	;# 
   484     0193                     	;# 
   485     0193                     	;# 
   486     0194                     	;# 
   487     0195                     	;# 
   488     0196                     	;# 
   489     0199                     	;# 
   490     019A                     	;# 
   491     019B                     	;# 
   492     019B                     	;# 
   493     019B                     	;# 
   494     019B                     	;# 
   495     019C                     	;# 
   496     019C                     	;# 
   497     019D                     	;# 
   498     019E                     	;# 
   499     019F                     	;# 
   500     020D                     	;# 
   501     0210                     	;# 
   502     0211                     	;# 
   503     0212                     	;# 
   504     0213                     	;# 
   505     0214                     	;# 
   506     0215                     	;# 
   507     0215                     	;# 
   508     0216                     	;# 
   509     0217                     	;# 
   510     0291                     	;# 
   511     0291                     	;# 
   512     0292                     	;# 
   513     0293                     	;# 
   514     0294                     	;# 
   515     0295                     	;# 
   516     0295                     	;# 
   517     0296                     	;# 
   518     0298                     	;# 
   519     0298                     	;# 
   520     0299                     	;# 
   521     029A                     	;# 
   522     029B                     	;# 
   523     029C                     	;# 
   524     029C                     	;# 
   525     029D                     	;# 
   526     029E                     	;# 
   527     029F                     	;# 
   528     0311                     	;# 
   529     0311                     	;# 
   530     0312                     	;# 
   531     0313                     	;# 
   532     0314                     	;# 
   533     0315                     	;# 
   534     0315                     	;# 
   535     0316                     	;# 
   536     0318                     	;# 
   537     0318                     	;# 
   538     0319                     	;# 
   539     031A                     	;# 
   540     031C                     	;# 
   541     031C                     	;# 
   542     031D                     	;# 
   543     031E                     	;# 
   544     0394                     	;# 
   545     0395                     	;# 
   546     0396                     	;# 
   547     0415                     	;# 
   548     0416                     	;# 
   549     0417                     	;# 
   550     041C                     	;# 
   551     041D                     	;# 
   552     041E                     	;# 
   553     0791                     	;# 
   554     0792                     	;# 
   555     0793                     	;# 
   556     0794                     	;# 
   557     0795                     	;# 
   558     0798                     	;# 
   559     0799                     	;# 
   560     07A0                     	;# 
   561     07A1                     	;# 
   562     07A3                     	;# 
   563     07A4                     	;# 
   564     07A6                     	;# 
   565     07A7                     	;# 
   566     07A9                     	;# 
   567     07AA                     	;# 
   568     0FE4                     	;# 
   569     0FE5                     	;# 
   570     0FE6                     	;# 
   571     0FE7                     	;# 
   572     0FE8                     	;# 
   573     0FE9                     	;# 
   574     0FEA                     	;# 
   575     0FEB                     	;# 
   576     0FED                     	;# 
   577     0FEE                     	;# 
   578     0FEF                     	;# 
   579     0000                     	;# 
   580     0001                     	;# 
   581     0002                     	;# 
   582     0003                     	;# 
   583     0004                     	;# 
   584     0005                     	;# 
   585     0006                     	;# 
   586     0007                     	;# 
   587     0008                     	;# 
   588     0009                     	;# 
   589     000A                     	;# 
   590     000B                     	;# 
   591     000C                     	;# 
   592     000D                     	;# 
   593     000E                     	;# 
   594     0010                     	;# 
   595     0011                     	;# 
   596     0012                     	;# 
   597     0013                     	;# 
   598     0015                     	;# 
   599     0016                     	;# 
   600     0016                     	;# 
   601     0017                     	;# 
   602     0018                     	;# 
   603     0019                     	;# 
   604     001A                     	;# 
   605     001B                     	;# 
   606     001C                     	;# 
   607     001E                     	;# 
   608     001F                     	;# 
   609     008C                     	;# 
   610     008D                     	;# 
   611     008E                     	;# 
   612     0090                     	;# 
   613     0091                     	;# 
   614     0092                     	;# 
   615     0093                     	;# 
   616     0095                     	;# 
   617     0096                     	;# 
   618     0097                     	;# 
   619     0098                     	;# 
   620     0099                     	;# 
   621     009A                     	;# 
   622     009B                     	;# 
   623     009B                     	;# 
   624     009C                     	;# 
   625     009D                     	;# 
   626     009E                     	;# 
   627     010C                     	;# 
   628     010D                     	;# 
   629     010E                     	;# 
   630     0110                     	;# 
   631     0111                     	;# 
   632     0112                     	;# 
   633     0113                     	;# 
   634     0114                     	;# 
   635     0115                     	;# 
   636     0116                     	;# 
   637     0117                     	;# 
   638     0118                     	;# 
   639     0119                     	;# 
   640     011A                     	;# 
   641     011B                     	;# 
   642     011D                     	;# 
   643     018C                     	;# 
   644     018D                     	;# 
   645     0191                     	;# 
   646     0191                     	;# 
   647     0192                     	;# 
   648     0193                     	;# 
   649     0193                     	;# 
   650     0193                     	;# 
   651     0194                     	;# 
   652     0195                     	;# 
   653     0196                     	;# 
   654     0199                     	;# 
   655     019A                     	;# 
   656     019B                     	;# 
   657     019B                     	;# 
   658     019B                     	;# 
   659     019B                     	;# 
   660     019C                     	;# 
   661     019C                     	;# 
   662     019D                     	;# 
   663     019E                     	;# 
   664     019F                     	;# 
   665     020D                     	;# 
   666     0210                     	;# 
   667     0211                     	;# 
   668     0212                     	;# 
   669     0213                     	;# 
   670     0214                     	;# 
   671     0215                     	;# 
   672     0215                     	;# 
   673     0216                     	;# 
   674     0217                     	;# 
   675     0291                     	;# 
   676     0291                     	;# 
   677     0292                     	;# 
   678     0293                     	;# 
   679     0294                     	;# 
   680     0295                     	;# 
   681     0295                     	;# 
   682     0296                     	;# 
   683     0298                     	;# 
   684     0298                     	;# 
   685     0299                     	;# 
   686     029A                     	;# 
   687     029B                     	;# 
   688     029C                     	;# 
   689     029C                     	;# 
   690     029D                     	;# 
   691     029E                     	;# 
   692     029F                     	;# 
   693     0311                     	;# 
   694     0311                     	;# 
   695     0312                     	;# 
   696     0313                     	;# 
   697     0314                     	;# 
   698     0315                     	;# 
   699     0315                     	;# 
   700     0316                     	;# 
   701     0318                     	;# 
   702     0318                     	;# 
   703     0319                     	;# 
   704     031A                     	;# 
   705     031C                     	;# 
   706     031C                     	;# 
   707     031D                     	;# 
   708     031E                     	;# 
   709     0394                     	;# 
   710     0395                     	;# 
   711     0396                     	;# 
   712     0415                     	;# 
   713     0416                     	;# 
   714     0417                     	;# 
   715     041C                     	;# 
   716     041D                     	;# 
   717     041E                     	;# 
   718     0791                     	;# 
   719     0792                     	;# 
   720     0793                     	;# 
   721     0794                     	;# 
   722     0795                     	;# 
   723     0798                     	;# 
   724     0799                     	;# 
   725     07A0                     	;# 
   726     07A1                     	;# 
   727     07A3                     	;# 
   728     07A4                     	;# 
   729     07A6                     	;# 
   730     07A7                     	;# 
   731     07A9                     	;# 
   732     07AA                     	;# 
   733     0FE4                     	;# 
   734     0FE5                     	;# 
   735     0FE6                     	;# 
   736     0FE7                     	;# 
   737     0FE8                     	;# 
   738     0FE9                     	;# 
   739     0FEA                     	;# 
   740     0FEB                     	;# 
   741     0FED                     	;# 
   742     0FEE                     	;# 
   743     0FEF                     	;# 
   744     0000                     	;# 
   745     0001                     	;# 
   746     0002                     	;# 
   747     0003                     	;# 
   748     0004                     	;# 
   749     0005                     	;# 
   750     0006                     	;# 
   751     0007                     	;# 
   752     0008                     	;# 
   753     0009                     	;# 
   754     000A                     	;# 
   755     000B                     	;# 
   756     000C                     	;# 
   757     000D                     	;# 
   758     000E                     	;# 
   759     0010                     	;# 
   760     0011                     	;# 
   761     0012                     	;# 
   762     0013                     	;# 
   763     0015                     	;# 
   764     0016                     	;# 
   765     0016                     	;# 
   766     0017                     	;# 
   767     0018                     	;# 
   768     0019                     	;# 
   769     001A                     	;# 
   770     001B                     	;# 
   771     001C                     	;# 
   772     001E                     	;# 
   773     001F                     	;# 
   774     008C                     	;# 
   775     008D                     	;# 
   776     008E                     	;# 
   777     0090                     	;# 
   778     0091                     	;# 
   779     0092                     	;# 
   780     0093                     	;# 
   781     0095                     	;# 
   782     0096                     	;# 
   783     0097                     	;# 
   784     0098                     	;# 
   785     0099                     	;# 
   786     009A                     	;# 
   787     009B                     	;# 
   788     009B                     	;# 
   789     009C                     	;# 
   790     009D                     	;# 
   791     009E                     	;# 
   792     010C                     	;# 
   793     010D                     	;# 
   794     010E                     	;# 
   795     0110                     	;# 
   796     0111                     	;# 
   797     0112                     	;# 
   798     0113                     	;# 
   799     0114                     	;# 
   800     0115                     	;# 
   801     0116                     	;# 
   802     0117                     	;# 
   803     0118                     	;# 
   804     0119                     	;# 
   805     011A                     	;# 
   806     011B                     	;# 
   807     011D                     	;# 
   808     018C                     	;# 
   809     018D                     	;# 
   810     0191                     	;# 
   811     0191                     	;# 
   812     0192                     	;# 
   813     0193                     	;# 
   814     0193                     	;# 
   815     0193                     	;# 
   816     0194                     	;# 
   817     0195                     	;# 
   818     0196                     	;# 
   819     0199                     	;# 
   820     019A                     	;# 
   821     019B                     	;# 
   822     019B                     	;# 
   823     019B                     	;# 
   824     019B                     	;# 
   825     019C                     	;# 
   826     019C                     	;# 
   827     019D                     	;# 
   828     019E                     	;# 
   829     019F                     	;# 
   830     020D                     	;# 
   831     0210                     	;# 
   832     0211                     	;# 
   833     0212                     	;# 
   834     0213                     	;# 
   835     0214                     	;# 
   836     0215                     	;# 
   837     0215                     	;# 
   838     0216                     	;# 
   839     0217                     	;# 
   840     0291                     	;# 
   841     0291                     	;# 
   842     0292                     	;# 
   843     0293                     	;# 
   844     0294                     	;# 
   845     0295                     	;# 
   846     0295                     	;# 
   847     0296                     	;# 
   848     0298                     	;# 
   849     0298                     	;# 
   850     0299                     	;# 
   851     029A                     	;# 
   852     029B                     	;# 
   853     029C                     	;# 
   854     029C                     	;# 
   855     029D                     	;# 
   856     029E                     	;# 
   857     029F                     	;# 
   858     0311                     	;# 
   859     0311                     	;# 
   860     0312                     	;# 
   861     0313                     	;# 
   862     0314                     	;# 
   863     0315                     	;# 
   864     0315                     	;# 
   865     0316                     	;# 
   866     0318                     	;# 
   867     0318                     	;# 
   868     0319                     	;# 
   869     031A                     	;# 
   870     031C                     	;# 
   871     031C                     	;# 
   872     031D                     	;# 
   873     031E                     	;# 
   874     0394                     	;# 
   875     0395                     	;# 
   876     0396                     	;# 
   877     0415                     	;# 
   878     0416                     	;# 
   879     0417                     	;# 
   880     041C                     	;# 
   881     041D                     	;# 
   882     041E                     	;# 
   883     0791                     	;# 
   884     0792                     	;# 
   885     0793                     	;# 
   886     0794                     	;# 
   887     0795                     	;# 
   888     0798                     	;# 
   889     0799                     	;# 
   890     07A0                     	;# 
   891     07A1                     	;# 
   892     07A3                     	;# 
   893     07A4                     	;# 
   894     07A6                     	;# 
   895     07A7                     	;# 
   896     07A9                     	;# 
   897     07AA                     	;# 
   898     0FE4                     	;# 
   899     0FE5                     	;# 
   900     0FE6                     	;# 
   901     0FE7                     	;# 
   902     0FE8                     	;# 
   903     0FE9                     	;# 
   904     0FEA                     	;# 
   905     0FEB                     	;# 
   906     0FED                     	;# 
   907     0FEE                     	;# 
   908     0FEF                     	;# 
   909     0000                     	;# 
   910     0001                     	;# 
   911     0002                     	;# 
   912     0003                     	;# 
   913     0004                     	;# 
   914     0005                     	;# 
   915     0006                     	;# 
   916     0007                     	;# 
   917     0008                     	;# 
   918     0009                     	;# 
   919     000A                     	;# 
   920     000B                     	;# 
   921     000C                     	;# 
   922     000D                     	;# 
   923     000E                     	;# 
   924     0010                     	;# 
   925     0011                     	;# 
   926     0012                     	;# 
   927     0013                     	;# 
   928     0015                     	;# 
   929     0016                     	;# 
   930     0016                     	;# 
   931     0017                     	;# 
   932     0018                     	;# 
   933     0019                     	;# 
   934     001A                     	;# 
   935     001B                     	;# 
   936     001C                     	;# 
   937     001E                     	;# 
   938     001F                     	;# 
   939     008C                     	;# 
   940     008D                     	;# 
   941     008E                     	;# 
   942     0090                     	;# 
   943     0091                     	;# 
   944     0092                     	;# 
   945     0093                     	;# 
   946     0095                     	;# 
   947     0096                     	;# 
   948     0097                     	;# 
   949     0098                     	;# 
   950     0099                     	;# 
   951     009A                     	;# 
   952     009B                     	;# 
   953     009B                     	;# 
   954     009C                     	;# 
   955     009D                     	;# 
   956     009E                     	;# 
   957     010C                     	;# 
   958     010D                     	;# 
   959     010E                     	;# 
   960     0110                     	;# 
   961     0111                     	;# 
   962     0112                     	;# 
   963     0113                     	;# 
   964     0114                     	;# 
   965     0115                     	;# 
   966     0116                     	;# 
   967     0117                     	;# 
   968     0118                     	;# 
   969     0119                     	;# 
   970     011A                     	;# 
   971     011B                     	;# 
   972     011D                     	;# 
   973     018C                     	;# 
   974     018D                     	;# 
   975     0191                     	;# 
   976     0191                     	;# 
   977     0192                     	;# 
   978     0193                     	;# 
   979     0193                     	;# 
   980     0193                     	;# 
   981     0194                     	;# 
   982     0195                     	;# 
   983     0196                     	;# 
   984     0199                     	;# 
   985     019A                     	;# 
   986     019B                     	;# 
   987     019B                     	;# 
   988     019B                     	;# 
   989     019B                     	;# 
   990     019C                     	;# 
   991     019C                     	;# 
   992     019D                     	;# 
   993     019E                     	;# 
   994     019F                     	;# 
   995     020D                     	;# 
   996     0210                     	;# 
   997     0211                     	;# 
   998     0212                     	;# 
   999     0213                     	;# 
  1000     0214                     	;# 
  1001     0215                     	;# 
  1002     0215                     	;# 
  1003     0216                     	;# 
  1004     0217                     	;# 
  1005     0291                     	;# 
  1006     0291                     	;# 
  1007     0292                     	;# 
  1008     0293                     	;# 
  1009     0294                     	;# 
  1010     0295                     	;# 
  1011     0295                     	;# 
  1012     0296                     	;# 
  1013     0298                     	;# 
  1014     0298                     	;# 
  1015     0299                     	;# 
  1016     029A                     	;# 
  1017     029B                     	;# 
  1018     029C                     	;# 
  1019     029C                     	;# 
  1020     029D                     	;# 
  1021     029E                     	;# 
  1022     029F                     	;# 
  1023     0311                     	;# 
  1024     0311                     	;# 
  1025     0312                     	;# 
  1026     0313                     	;# 
  1027     0314                     	;# 
  1028     0315                     	;# 
  1029     0315                     	;# 
  1030     0316                     	;# 
  1031     0318                     	;# 
  1032     0318                     	;# 
  1033     0319                     	;# 
  1034     031A                     	;# 
  1035     031C                     	;# 
  1036     031C                     	;# 
  1037     031D                     	;# 
  1038     031E                     	;# 
  1039     0394                     	;# 
  1040     0395                     	;# 
  1041     0396                     	;# 
  1042     0415                     	;# 
  1043     0416                     	;# 
  1044     0417                     	;# 
  1045     041C                     	;# 
  1046     041D                     	;# 
  1047     041E                     	;# 
  1048     0791                     	;# 
  1049     0792                     	;# 
  1050     0793                     	;# 
  1051     0794                     	;# 
  1052     0795                     	;# 
  1053     0798                     	;# 
  1054     0799                     	;# 
  1055     07A0                     	;# 
  1056     07A1                     	;# 
  1057     07A3                     	;# 
  1058     07A4                     	;# 
  1059     07A6                     	;# 
  1060     07A7                     	;# 
  1061     07A9                     	;# 
  1062     07AA                     	;# 
  1063     0FE4                     	;# 
  1064     0FE5                     	;# 
  1065     0FE6                     	;# 
  1066     0FE7                     	;# 
  1067     0FE8                     	;# 
  1068     0FE9                     	;# 
  1069     0FEA                     	;# 
  1070     0FEB                     	;# 
  1071     0FED                     	;# 
  1072     0FEE                     	;# 
  1073     0FEF                     	;# 
  1074     0000                     	;# 
  1075     0001                     	;# 
  1076     0002                     	;# 
  1077     0003                     	;# 
  1078     0004                     	;# 
  1079     0005                     	;# 
  1080     0006                     	;# 
  1081     0007                     	;# 
  1082     0008                     	;# 
  1083     0009                     	;# 
  1084     000A                     	;# 
  1085     000B                     	;# 
  1086     000C                     	;# 
  1087     000D                     	;# 
  1088     000E                     	;# 
  1089     0010                     	;# 
  1090     0011                     	;# 
  1091     0012                     	;# 
  1092     0013                     	;# 
  1093     0015                     	;# 
  1094     0016                     	;# 
  1095     0016                     	;# 
  1096     0017                     	;# 
  1097     0018                     	;# 
  1098     0019                     	;# 
  1099     001A                     	;# 
  1100     001B                     	;# 
  1101     001C                     	;# 
  1102     001E                     	;# 
  1103     001F                     	;# 
  1104     008C                     	;# 
  1105     008D                     	;# 
  1106     008E                     	;# 
  1107     0090                     	;# 
  1108     0091                     	;# 
  1109     0092                     	;# 
  1110     0093                     	;# 
  1111     0095                     	;# 
  1112     0096                     	;# 
  1113     0097                     	;# 
  1114     0098                     	;# 
  1115     0099                     	;# 
  1116     009A                     	;# 
  1117     009B                     	;# 
  1118     009B                     	;# 
  1119     009C                     	;# 
  1120     009D                     	;# 
  1121     009E                     	;# 
  1122     010C                     	;# 
  1123     010D                     	;# 
  1124     010E                     	;# 
  1125     0110                     	;# 
  1126     0111                     	;# 
  1127     0112                     	;# 
  1128     0113                     	;# 
  1129     0114                     	;# 
  1130     0115                     	;# 
  1131     0116                     	;# 
  1132     0117                     	;# 
  1133     0118                     	;# 
  1134     0119                     	;# 
  1135     011A                     	;# 
  1136     011B                     	;# 
  1137     011D                     	;# 
  1138     018C                     	;# 
  1139     018D                     	;# 
  1140     0191                     	;# 
  1141     0191                     	;# 
  1142     0192                     	;# 
  1143     0193                     	;# 
  1144     0193                     	;# 
  1145     0193                     	;# 
  1146     0194                     	;# 
  1147     0195                     	;# 
  1148     0196                     	;# 
  1149     0199                     	;# 
  1150     019A                     	;# 
  1151     019B                     	;# 
  1152     019B                     	;# 
  1153     019B                     	;# 
  1154     019B                     	;# 
  1155     019C                     	;# 
  1156     019C                     	;# 
  1157     019D                     	;# 
  1158     019E                     	;# 
  1159     019F                     	;# 
  1160     020D                     	;# 
  1161     0210                     	;# 
  1162     0211                     	;# 
  1163     0212                     	;# 
  1164     0213                     	;# 
  1165     0214                     	;# 
  1166     0215                     	;# 
  1167     0215                     	;# 
  1168     0216                     	;# 
  1169     0217                     	;# 
  1170     0291                     	;# 
  1171     0291                     	;# 
  1172     0292                     	;# 
  1173     0293                     	;# 
  1174     0294                     	;# 
  1175     0295                     	;# 
  1176     0295                     	;# 
  1177     0296                     	;# 
  1178     0298                     	;# 
  1179     0298                     	;# 
  1180     0299                     	;# 
  1181     029A                     	;# 
  1182     029B                     	;# 
  1183     029C                     	;# 
  1184     029C                     	;# 
  1185     029D                     	;# 
  1186     029E                     	;# 
  1187     029F                     	;# 
  1188     0311                     	;# 
  1189     0311                     	;# 
  1190     0312                     	;# 
  1191     0313                     	;# 
  1192     0314                     	;# 
  1193     0315                     	;# 
  1194     0315                     	;# 
  1195     0316                     	;# 
  1196     0318                     	;# 
  1197     0318                     	;# 
  1198     0319                     	;# 
  1199     031A                     	;# 
  1200     031C                     	;# 
  1201     031C                     	;# 
  1202     031D                     	;# 
  1203     031E                     	;# 
  1204     0394                     	;# 
  1205     0395                     	;# 
  1206     0396                     	;# 
  1207     0415                     	;# 
  1208     0416                     	;# 
  1209     0417                     	;# 
  1210     041C                     	;# 
  1211     041D                     	;# 
  1212     041E                     	;# 
  1213     0791                     	;# 
  1214     0792                     	;# 
  1215     0793                     	;# 
  1216     0794                     	;# 
  1217     0795                     	;# 
  1218     0798                     	;# 
  1219     0799                     	;# 
  1220     07A0                     	;# 
  1221     07A1                     	;# 
  1222     07A3                     	;# 
  1223     07A4                     	;# 
  1224     07A6                     	;# 
  1225     07A7                     	;# 
  1226     07A9                     	;# 
  1227     07AA                     	;# 
  1228     0FE4                     	;# 
  1229     0FE5                     	;# 
  1230     0FE6                     	;# 
  1231     0FE7                     	;# 
  1232     0FE8                     	;# 
  1233     0FE9                     	;# 
  1234     0FEA                     	;# 
  1235     0FEB                     	;# 
  1236     0FED                     	;# 
  1237     0FEE                     	;# 
  1238     0FEF                     	;# 
  1239     0000                     	;# 
  1240     0001                     	;# 
  1241     0002                     	;# 
  1242     0003                     	;# 
  1243     0004                     	;# 
  1244     0005                     	;# 
  1245     0006                     	;# 
  1246     0007                     	;# 
  1247     0008                     	;# 
  1248     0009                     	;# 
  1249     000A                     	;# 
  1250     000B                     	;# 
  1251     000C                     	;# 
  1252     000D                     	;# 
  1253     000E                     	;# 
  1254     0010                     	;# 
  1255     0011                     	;# 
  1256     0012                     	;# 
  1257     0013                     	;# 
  1258     0015                     	;# 
  1259     0016                     	;# 
  1260     0016                     	;# 
  1261     0017                     	;# 
  1262     0018                     	;# 
  1263     0019                     	;# 
  1264     001A                     	;# 
  1265     001B                     	;# 
  1266     001C                     	;# 
  1267     001E                     	;# 
  1268     001F                     	;# 
  1269     008C                     	;# 
  1270     008D                     	;# 
  1271     008E                     	;# 
  1272     0090                     	;# 
  1273     0091                     	;# 
  1274     0092                     	;# 
  1275     0093                     	;# 
  1276     0095                     	;# 
  1277     0096                     	;# 
  1278     0097                     	;# 
  1279     0098                     	;# 
  1280     0099                     	;# 
  1281     009A                     	;# 
  1282     009B                     	;# 
  1283     009B                     	;# 
  1284     009C                     	;# 
  1285     009D                     	;# 
  1286     009E                     	;# 
  1287     010C                     	;# 
  1288     010D                     	;# 
  1289     010E                     	;# 
  1290     0110                     	;# 
  1291     0111                     	;# 
  1292     0112                     	;# 
  1293     0113                     	;# 
  1294     0114                     	;# 
  1295     0115                     	;# 
  1296     0116                     	;# 
  1297     0117                     	;# 
  1298     0118                     	;# 
  1299     0119                     	;# 
  1300     011A                     	;# 
  1301     011B                     	;# 
  1302     011D                     	;# 
  1303     018C                     	;# 
  1304     018D                     	;# 
  1305     0191                     	;# 
  1306     0191                     	;# 
  1307     0192                     	;# 
  1308     0193                     	;# 
  1309     0193                     	;# 
  1310     0193                     	;# 
  1311     0194                     	;# 
  1312     0195                     	;# 
  1313     0196                     	;# 
  1314     0199                     	;# 
  1315     019A                     	;# 
  1316     019B                     	;# 
  1317     019B                     	;# 
  1318     019B                     	;# 
  1319     019B                     	;# 
  1320     019C                     	;# 
  1321     019C                     	;# 
  1322     019D                     	;# 
  1323     019E                     	;# 
  1324     019F                     	;# 
  1325     020D                     	;# 
  1326     0210                     	;# 
  1327     0211                     	;# 
  1328     0212                     	;# 
  1329     0213                     	;# 
  1330     0214                     	;# 
  1331     0215                     	;# 
  1332     0215                     	;# 
  1333     0216                     	;# 
  1334     0217                     	;# 
  1335     0291                     	;# 
  1336     0291                     	;# 
  1337     0292                     	;# 
  1338     0293                     	;# 
  1339     0294                     	;# 
  1340     0295                     	;# 
  1341     0295                     	;# 
  1342     0296                     	;# 
  1343     0298                     	;# 
  1344     0298                     	;# 
  1345     0299                     	;# 
  1346     029A                     	;# 
  1347     029B                     	;# 
  1348     029C                     	;# 
  1349     029C                     	;# 
  1350     029D                     	;# 
  1351     029E                     	;# 
  1352     029F                     	;# 
  1353     0311                     	;# 
  1354     0311                     	;# 
  1355     0312                     	;# 
  1356     0313                     	;# 
  1357     0314                     	;# 
  1358     0315                     	;# 
  1359     0315                     	;# 
  1360     0316                     	;# 
  1361     0318                     	;# 
  1362     0318                     	;# 
  1363     0319                     	;# 
  1364     031A                     	;# 
  1365     031C                     	;# 
  1366     031C                     	;# 
  1367     031D                     	;# 
  1368     031E                     	;# 
  1369     0394                     	;# 
  1370     0395                     	;# 
  1371     0396                     	;# 
  1372     0415                     	;# 
  1373     0416                     	;# 
  1374     0417                     	;# 
  1375     041C                     	;# 
  1376     041D                     	;# 
  1377     041E                     	;# 
  1378     0791                     	;# 
  1379     0792                     	;# 
  1380     0793                     	;# 
  1381     0794                     	;# 
  1382     0795                     	;# 
  1383     0798                     	;# 
  1384     0799                     	;# 
  1385     07A0                     	;# 
  1386     07A1                     	;# 
  1387     07A3                     	;# 
  1388     07A4                     	;# 
  1389     07A6                     	;# 
  1390     07A7                     	;# 
  1391     07A9                     	;# 
  1392     07AA                     	;# 
  1393     0FE4                     	;# 
  1394     0FE5                     	;# 
  1395     0FE6                     	;# 
  1396     0FE7                     	;# 
  1397     0FE8                     	;# 
  1398     0FE9                     	;# 
  1399     0FEA                     	;# 
  1400     0FEB                     	;# 
  1401     0FED                     	;# 
  1402     0FEE                     	;# 
  1403     0FEF                     	;# 
  1404     0000                     	;# 
  1405     0001                     	;# 
  1406     0002                     	;# 
  1407     0003                     	;# 
  1408     0004                     	;# 
  1409     0005                     	;# 
  1410     0006                     	;# 
  1411     0007                     	;# 
  1412     0008                     	;# 
  1413     0009                     	;# 
  1414     000A                     	;# 
  1415     000B                     	;# 
  1416     000C                     	;# 
  1417     000D                     	;# 
  1418     000E                     	;# 
  1419     0010                     	;# 
  1420     0011                     	;# 
  1421     0012                     	;# 
  1422     0013                     	;# 
  1423     0015                     	;# 
  1424     0016                     	;# 
  1425     0016                     	;# 
  1426     0017                     	;# 
  1427     0018                     	;# 
  1428     0019                     	;# 
  1429     001A                     	;# 
  1430     001B                     	;# 
  1431     001C                     	;# 
  1432     001E                     	;# 
  1433     001F                     	;# 
  1434     008C                     	;# 
  1435     008D                     	;# 
  1436     008E                     	;# 
  1437     0090                     	;# 
  1438     0091                     	;# 
  1439     0092                     	;# 
  1440     0093                     	;# 
  1441     0095                     	;# 
  1442     0096                     	;# 
  1443     0097                     	;# 
  1444     0098                     	;# 
  1445     0099                     	;# 
  1446     009A                     	;# 
  1447     009B                     	;# 
  1448     009B                     	;# 
  1449     009C                     	;# 
  1450     009D                     	;# 
  1451     009E                     	;# 
  1452     010C                     	;# 
  1453     010D                     	;# 
  1454     010E                     	;# 
  1455     0110                     	;# 
  1456     0111                     	;# 
  1457     0112                     	;# 
  1458     0113                     	;# 
  1459     0114                     	;# 
  1460     0115                     	;# 
  1461     0116                     	;# 
  1462     0117                     	;# 
  1463     0118                     	;# 
  1464     0119                     	;# 
  1465     011A                     	;# 
  1466     011B                     	;# 
  1467     011D                     	;# 
  1468     018C                     	;# 
  1469     018D                     	;# 
  1470     0191                     	;# 
  1471     0191                     	;# 
  1472     0192                     	;# 
  1473     0193                     	;# 
  1474     0193                     	;# 
  1475     0193                     	;# 
  1476     0194                     	;# 
  1477     0195                     	;# 
  1478     0196                     	;# 
  1479     0199                     	;# 
  1480     019A                     	;# 
  1481     019B                     	;# 
  1482     019B                     	;# 
  1483     019B                     	;# 
  1484     019B                     	;# 
  1485     019C                     	;# 
  1486     019C                     	;# 
  1487     019D                     	;# 
  1488     019E                     	;# 
  1489     019F                     	;# 
  1490     020D                     	;# 
  1491     0210                     	;# 
  1492     0211                     	;# 
  1493     0212                     	;# 
  1494     0213                     	;# 
  1495     0214                     	;# 
  1496     0215                     	;# 
  1497     0215                     	;# 
  1498     0216                     	;# 
  1499     0217                     	;# 
  1500     0291                     	;# 
  1501     0291                     	;# 
  1502     0292                     	;# 
  1503     0293                     	;# 
  1504     0294                     	;# 
  1505     0295                     	;# 
  1506     0295                     	;# 
  1507     0296                     	;# 
  1508     0298                     	;# 
  1509     0298                     	;# 
  1510     0299                     	;# 
  1511     029A                     	;# 
  1512     029B                     	;# 
  1513     029C                     	;# 
  1514     029C                     	;# 
  1515     029D                     	;# 
  1516     029E                     	;# 
  1517     029F                     	;# 
  1518     0311                     	;# 
  1519     0311                     	;# 
  1520     0312                     	;# 
  1521     0313                     	;# 
  1522     0314                     	;# 
  1523     0315                     	;# 
  1524     0315                     	;# 
  1525     0316                     	;# 
  1526     0318                     	;# 
  1527     0318                     	;# 
  1528     0319                     	;# 
  1529     031A                     	;# 
  1530     031C                     	;# 
  1531     031C                     	;# 
  1532     031D                     	;# 
  1533     031E                     	;# 
  1534     0394                     	;# 
  1535     0395                     	;# 
  1536     0396                     	;# 
  1537     0415                     	;# 
  1538     0416                     	;# 
  1539     0417                     	;# 
  1540     041C                     	;# 
  1541     041D                     	;# 
  1542     041E                     	;# 
  1543     0791                     	;# 
  1544     0792                     	;# 
  1545     0793                     	;# 
  1546     0794                     	;# 
  1547     0795                     	;# 
  1548     0798                     	;# 
  1549     0799                     	;# 
  1550     07A0                     	;# 
  1551     07A1                     	;# 
  1552     07A3                     	;# 
  1553     07A4                     	;# 
  1554     07A6                     	;# 
  1555     07A7                     	;# 
  1556     07A9                     	;# 
  1557     07AA                     	;# 
  1558     0FE4                     	;# 
  1559     0FE5                     	;# 
  1560     0FE6                     	;# 
  1561     0FE7                     	;# 
  1562     0FE8                     	;# 
  1563     0FE9                     	;# 
  1564     0FEA                     	;# 
  1565     0FEB                     	;# 
  1566     0FED                     	;# 
  1567     0FEE                     	;# 
  1568     0FEF                     	;# 
  1569     0000                     	;# 
  1570     0001                     	;# 
  1571     0002                     	;# 
  1572     0003                     	;# 
  1573     0004                     	;# 
  1574     0005                     	;# 
  1575     0006                     	;# 
  1576     0007                     	;# 
  1577     0008                     	;# 
  1578     0009                     	;# 
  1579     000A                     	;# 
  1580     000B                     	;# 
  1581     000C                     	;# 
  1582     000D                     	;# 
  1583     000E                     	;# 
  1584     0010                     	;# 
  1585     0011                     	;# 
  1586     0012                     	;# 
  1587     0013                     	;# 
  1588     0015                     	;# 
  1589     0016                     	;# 
  1590     0016                     	;# 
  1591     0017                     	;# 
  1592     0018                     	;# 
  1593     0019                     	;# 
  1594     001A                     	;# 
  1595     001B                     	;# 
  1596     001C                     	;# 
  1597     001E                     	;# 
  1598     001F                     	;# 
  1599     008C                     	;# 
  1600     008D                     	;# 
  1601     008E                     	;# 
  1602     0090                     	;# 
  1603     0091                     	;# 
  1604     0092                     	;# 
  1605     0093                     	;# 
  1606     0095                     	;# 
  1607     0096                     	;# 
  1608     0097                     	;# 
  1609     0098                     	;# 
  1610     0099                     	;# 
  1611     009A                     	;# 
  1612     009B                     	;# 
  1613     009B                     	;# 
  1614     009C                     	;# 
  1615     009D                     	;# 
  1616     009E                     	;# 
  1617     010C                     	;# 
  1618     010D                     	;# 
  1619     010E                     	;# 
  1620     0110                     	;# 
  1621     0111                     	;# 
  1622     0112                     	;# 
  1623     0113                     	;# 
  1624     0114                     	;# 
  1625     0115                     	;# 
  1626     0116                     	;# 
  1627     0117                     	;# 
  1628     0118                     	;# 
  1629     0119                     	;# 
  1630     011A                     	;# 
  1631     011B                     	;# 
  1632     011D                     	;# 
  1633     018C                     	;# 
  1634     018D                     	;# 
  1635     0191                     	;# 
  1636     0191                     	;# 
  1637     0192                     	;# 
  1638     0193                     	;# 
  1639     0193                     	;# 
  1640     0193                     	;# 
  1641     0194                     	;# 
  1642     0195                     	;# 
  1643     0196                     	;# 
  1644     0199                     	;# 
  1645     019A                     	;# 
  1646     019B                     	;# 
  1647     019B                     	;# 
  1648     019B                     	;# 
  1649     019B                     	;# 
  1650     019C                     	;# 
  1651     019C                     	;# 
  1652     019D                     	;# 
  1653     019E                     	;# 
  1654     019F                     	;# 
  1655     020D                     	;# 
  1656     0210                     	;# 
  1657     0211                     	;# 
  1658     0212                     	;# 
  1659     0213                     	;# 
  1660     0214                     	;# 
  1661     0215                     	;# 
  1662     0215                     	;# 
  1663     0216                     	;# 
  1664     0217                     	;# 
  1665     0291                     	;# 
  1666     0291                     	;# 
  1667     0292                     	;# 
  1668     0293                     	;# 
  1669     0294                     	;# 
  1670     0295                     	;# 
  1671     0295                     	;# 
  1672     0296                     	;# 
  1673     0298                     	;# 
  1674     0298                     	;# 
  1675     0299                     	;# 
  1676     029A                     	;# 
  1677     029B                     	;# 
  1678     029C                     	;# 
  1679     029C                     	;# 
  1680     029D                     	;# 
  1681     029E                     	;# 
  1682     029F                     	;# 
  1683     0311                     	;# 
  1684     0311                     	;# 
  1685     0312                     	;# 
  1686     0313                     	;# 
  1687     0314                     	;# 
  1688     0315                     	;# 
  1689     0315                     	;# 
  1690     0316                     	;# 
  1691     0318                     	;# 
  1692     0318                     	;# 
  1693     0319                     	;# 
  1694     031A                     	;# 
  1695     031C                     	;# 
  1696     031C                     	;# 
  1697     031D                     	;# 
  1698     031E                     	;# 
  1699     0394                     	;# 
  1700     0395                     	;# 
  1701     0396                     	;# 
  1702     0415                     	;# 
  1703     0416                     	;# 
  1704     0417                     	;# 
  1705     041C                     	;# 
  1706     041D                     	;# 
  1707     041E                     	;# 
  1708     0791                     	;# 
  1709     0792                     	;# 
  1710     0793                     	;# 
  1711     0794                     	;# 
  1712     0795                     	;# 
  1713     0798                     	;# 
  1714     0799                     	;# 
  1715     07A0                     	;# 
  1716     07A1                     	;# 
  1717     07A3                     	;# 
  1718     07A4                     	;# 
  1719     07A6                     	;# 
  1720     07A7                     	;# 
  1721     07A9                     	;# 
  1722     07AA                     	;# 
  1723     0FE4                     	;# 
  1724     0FE5                     	;# 
  1725     0FE6                     	;# 
  1726     0FE7                     	;# 
  1727     0FE8                     	;# 
  1728     0FE9                     	;# 
  1729     0FEA                     	;# 
  1730     0FEB                     	;# 
  1731     0FED                     	;# 
  1732     0FEE                     	;# 
  1733     0FEF                     	;# 
  1734                           
  1735 ;; Function _I2C_SlaveDefWrColInterruptHandler is unused but had its address taken
  1736     0000                     
  1737 ;; Function _I2C_SlaveDefBusColInterruptHandler is unused but had its address taken
  1738     0012                     _PIR2bits	set	18
  1739     0011                     _PIR1bits	set	17
  1740     000C                     _PORTAbits	set	12
  1741     000B                     _INTCONbits	set	11
  1742     0092                     _PIE2bits	set	146
  1743     0091                     _PIE1bits	set	145
  1744     0097                     _WDTCON	set	151
  1745     0098                     _OSCTUNE	set	152
  1746     0099                     _OSCCON	set	153
  1747     0095                     _OPTION_REGbits	set	149
  1748     008E                     _TRISC	set	142
  1749     008D                     _TRISB	set	141
  1750     008C                     _TRISA	set	140
  1751     0090                     _TRISE	set	144
  1752     010C                     _LATAbits	set	268
  1753     0116                     _BORCON	set	278
  1754     011D                     _APFCON	set	285
  1755     010E                     _LATC	set	270
  1756     010D                     _LATB	set	269
  1757     010C                     _LATA	set	268
  1758     0110                     _LATE	set	272
  1759     0196                     _EECON2	set	406
  1760     0195                     _EECON1bits	set	405
  1761     0192                     _EEADRH	set	402
  1762     0191                     _EEADRL	set	401
  1763     0193                     _EEDATL	set	403
  1764     0194                     _EEDATH	set	404
  1765     018C                     _ANSELA	set	396
  1766     018D                     _ANSELB	set	397
  1767     0216                     _SSPCON2bits	set	534
  1768     0214                     _SSPSTATbits	set	532
  1769     0213                     _SSPMSK	set	531
  1770     0212                     _SSPADD	set	530
  1771     0215                     _SSPCON1bits	set	533
  1772     0216                     _SSPCON2	set	534
  1773     0215                     _SSPCON1	set	533
  1774     0214                     _SSPSTAT	set	532
  1775     0211                     _SSPBUF	set	529
  1776     020D                     _WPUB	set	525
  1777     0210                     _WPUE	set	528
  1778                           
  1779                           	psect	cinit
  1780     0029                     start_initialization:	
  1781                           ; #config settings
  1782                           
  1783     0029                     __initialization:
  1784                           
  1785                           ; Clear objects allocated to COMMON
  1786     0029  3070               	movlw	low __pbssCOMMON
  1787     002A  0084               	movwf	4
  1788     002B  3000               	movlw	high __pbssCOMMON
  1789     002C  0085               	movwf	5
  1790     002D  3008               	movlw	8
  1791     002E  3181  21B9  3180   	fcall	clear_ram0
  1792                           
  1793                           ; Clear objects allocated to BANK0
  1794     0031  3020               	movlw	low __pbssBANK0
  1795     0032  0084               	movwf	4
  1796     0033  3000               	movlw	high __pbssBANK0
  1797     0034  0085               	movwf	5
  1798     0035  300E               	movlw	14
  1799     0036  3181  21B9  3180   	fcall	clear_ram0
  1800     0039                     end_of_initialization:	
  1801                           ;End of C runtime variable initialization code
  1802                           
  1803     0039                     __end_of__initialization:
  1804     0039  107E               	bcf	int$flags,0	;clear compiler interrupt flag (level 1)
  1805     003A  0020               	movlb	0
  1806     003B  3180  28A6         	ljmp	_main	;jump to C main() function
  1807                           
  1808                           	psect	bssCOMMON
  1809     0070                     __pbssCOMMON:
  1810     0070                     _i2cSlaveState:
  1811     0070                     	ds	1
  1812     0071                     _i2cSlaveAddr:
  1813     0071                     	ds	1
  1814     0072                     _i2cRdData:
  1815     0072                     	ds	1
  1816     0073                     _i2cWrData:
  1817     0073                     	ds	1
  1818     0074                     _dath:
  1819     0074                     	ds	1
  1820     0075                     _datl:
  1821     0075                     	ds	1
  1822     0076                     _read_state:
  1823     0076                     	ds	1
  1824     0077                     _start_barrier:
  1825     0077                     	ds	1
  1826                           
  1827                           	psect	bssBANK0
  1828     0020                     __pbssBANK0:
  1829     0020                     _prog_data:
  1830     0020                     	ds	2
  1831     0022                     _I2C_SlaveWrColInterruptHandler:
  1832     0022                     	ds	2
  1833     0024                     _I2C_SlaveBusColInterruptHandler:
  1834     0024                     	ds	2
  1835     0026                     _I2C_SlaveAddrInterruptHandler:
  1836     0026                     	ds	2
  1837     0028                     _I2C_SlaveWrInterruptHandler:
  1838     0028                     	ds	2
  1839     002A                     _I2C_SlaveRdInterruptHandler:
  1840     002A                     	ds	2
  1841     002C                     _MSSP_InterruptHandler:
  1842     002C                     	ds	2
  1843                           
  1844                           	psect	clrtext
  1845     01B9                     clear_ram0:	
  1846                           ;	Called with FSR0 containing the base address, and
  1847                           ;	WREG with the size to clear
  1848                           
  1849     01B9  0064               	clrwdt	;clear the watchdog before getting into this loop
  1850     01BA                     clrloop0:
  1851     01BA  0180               	clrf	0	;clear RAM location pointed to by FSR
  1852     01BB  3101               	addfsr 0,1
  1853     01BC  0B89               	decfsz	9,f	;Have we reached the end of clearing yet?
  1854     01BD  29BA               	goto	clrloop0	;have we reached the end yet?
  1855     01BE  3400               	retlw	0	;all done for this memory range, return
  1856                           
  1857                           	psect	cstackCOMMON
  1858     0078                     __pcstackCOMMON:
  1859     0078                     ?_I2C_Initialize:
  1860     0078                     ?_OSCILLATOR_Initialize:	
  1861                           ; 1 bytes @ 0x0
  1862                           
  1863     0078                     ?_WDT_Initialize:	
  1864                           ; 1 bytes @ 0x0
  1865                           
  1866     0078                     ?_I2C_Write:	
  1867                           ; 1 bytes @ 0x0
  1868                           
  1869     0078                     ?_I2C_Open:	
  1870                           ; 1 bytes @ 0x0
  1871                           
  1872     0078                     ?_I2C_SlaveOpen:	
  1873                           ; 1 bytes @ 0x0
  1874                           
  1875     0078                     ?_I2C_SlaveSetSlaveAddr:	
  1876                           ; 1 bytes @ 0x0
  1877                           
  1878     0078                     ?_I2C_SlaveSetSlaveMask:	
  1879                           ; 1 bytes @ 0x0
  1880                           
  1881     0078                     ?_I2C_Isr:	
  1882                           ; 1 bytes @ 0x0
  1883                           
  1884     0078                     ?_I2C_SlaveDefWrInterruptHandler:	
  1885                           ; 1 bytes @ 0x0
  1886                           
  1887     0078                     ?_I2C_SlaveDefRdInterruptHandler:	
  1888                           ; 1 bytes @ 0x0
  1889                           
  1890     0078                     ??_I2C_SlaveDefRdInterruptHandler:	
  1891                           ; 1 bytes @ 0x0
  1892                           
  1893     0078                     ?_I2C_SlaveDefAddrInterruptHandler:	
  1894                           ; 1 bytes @ 0x0
  1895                           
  1896     0078                     ??_I2C_SlaveDefAddrInterruptHandler:	
  1897                           ; 1 bytes @ 0x0
  1898                           
  1899     0078                     ?_I2C_SlaveEnableIrq:	
  1900                           ; 1 bytes @ 0x0
  1901                           
  1902     0078                     ?_I2C_SlaveGetRxData:	
  1903                           ; 1 bytes @ 0x0
  1904                           
  1905     0078                     ??_I2C_SlaveGetRxData:	
  1906                           ; 1 bytes @ 0x0
  1907                           
  1908     0078                     ?_I2C_SlaveSendTxData:	
  1909                           ; 1 bytes @ 0x0
  1910                           
  1911     0078                     ??_I2C_SlaveSendTxData:	
  1912                           ; 1 bytes @ 0x0
  1913                           
  1914     0078                     ?_I2C_SlaveIsRead:	
  1915                           ; 1 bytes @ 0x0
  1916                           
  1917     0078                     ??_I2C_SlaveIsRead:	
  1918                           ; 1 bytes @ 0x0
  1919                           
  1920     0078                     ?_I2C_SlaveClearIrq:	
  1921                           ; 1 bytes @ 0x0
  1922                           
  1923     0078                     ??_I2C_SlaveClearIrq:	
  1924                           ; 1 bytes @ 0x0
  1925                           
  1926     0078                     ?_I2C_SlaveIsAddr:	
  1927                           ; 1 bytes @ 0x0
  1928                           
  1929     0078                     ??_I2C_SlaveIsAddr:	
  1930                           ; 1 bytes @ 0x0
  1931                           
  1932     0078                     ?_I2C_SlaveAddrCallBack:	
  1933                           ; 1 bytes @ 0x0
  1934                           
  1935     0078                     ??_I2C_SlaveAddrCallBack:	
  1936                           ; 1 bytes @ 0x0
  1937                           
  1938     0078                     ?_I2C_SlaveIsTxBufEmpty:	
  1939                           ; 1 bytes @ 0x0
  1940                           
  1941     0078                     ??_I2C_SlaveIsTxBufEmpty:	
  1942                           ; 1 bytes @ 0x0
  1943                           
  1944     0078                     ?_I2C_SlaveWrCallBack:	
  1945                           ; 1 bytes @ 0x0
  1946                           
  1947     0078                     ?_I2C_SlaveIsRxBufFull:	
  1948                           ; 1 bytes @ 0x0
  1949                           
  1950     0078                     ??_I2C_SlaveIsRxBufFull:	
  1951                           ; 1 bytes @ 0x0
  1952                           
  1953     0078                     ?_I2C_SlaveRdCallBack:	
  1954                           ; 1 bytes @ 0x0
  1955                           
  1956     0078                     ??_I2C_SlaveRdCallBack:	
  1957                           ; 1 bytes @ 0x0
  1958                           
  1959     0078                     ?_I2C_SlaveReleaseClock:	
  1960                           ; 1 bytes @ 0x0
  1961                           
  1962     0078                     ??_I2C_SlaveReleaseClock:	
  1963                           ; 1 bytes @ 0x0
  1964                           
  1965     0078                     ?_PIN_MANAGER_Initialize:	
  1966                           ; 1 bytes @ 0x0
  1967                           
  1968     0078                     ?_SYSTEM_Initialize:	
  1969                           ; 1 bytes @ 0x0
  1970                           
  1971     0078                     ?_ReadIntHandler:	
  1972                           ; 1 bytes @ 0x0
  1973                           
  1974     0078                     ?_AddressIntHandler:	
  1975                           ; 1 bytes @ 0x0
  1976                           
  1977     0078                     ??_AddressIntHandler:	
  1978                           ; 1 bytes @ 0x0
  1979                           
  1980     0078                     ?_main:	
  1981                           ; 1 bytes @ 0x0
  1982                           
  1983     0078                     ?_INTERRUPT_InterruptManager:	
  1984                           ; 1 bytes @ 0x0
  1985                           
  1986     0078                     I2C_SlaveSendTxData@data:	
  1987                           ; 1 bytes @ 0x0
  1988                           
  1989                           
  1990                           ; 1 bytes @ 0x0
  1991     0078                     	ds	1
  1992     0079                     ??_I2C_Write:
  1993     0079                     ??_I2C_SlaveDefWrInterruptHandler:	
  1994                           ; 1 bytes @ 0x1
  1995                           
  1996     0079                     I2C_Write@data:	
  1997                           ; 1 bytes @ 0x1
  1998                           
  1999                           
  2000                           ; 1 bytes @ 0x1
  2001     0079                     	ds	1
  2002     007A                     ??_I2C_Isr:
  2003     007A                     ??_I2C_SlaveWrCallBack:	
  2004                           ; 1 bytes @ 0x2
  2005                           
  2006     007A                     ??_ReadIntHandler:	
  2007                           ; 1 bytes @ 0x2
  2008                           
  2009                           
  2010                           ; 1 bytes @ 0x2
  2011     007A                     	ds	2
  2012     007C                     ??_INTERRUPT_InterruptManager:
  2013                           
  2014                           	psect	cstackBANK0
  2015     002E                     __pcstackBANK0:	
  2016                           ; 1 bytes @ 0x4
  2017                           
  2018     002E                     ??_I2C_Initialize:
  2019     002E                     ??_OSCILLATOR_Initialize:	
  2020                           ; 1 bytes @ 0x0
  2021                           
  2022     002E                     ??_WDT_Initialize:	
  2023                           ; 1 bytes @ 0x0
  2024                           
  2025     002E                     ?_I2C_SlaveSetWriteIntHandler:	
  2026                           ; 1 bytes @ 0x0
  2027                           
  2028     002E                     ?_I2C_SlaveSetAddrIntHandler:	
  2029                           ; 1 bytes @ 0x0
  2030                           
  2031     002E                     ??_I2C_SlaveOpen:	
  2032                           ; 1 bytes @ 0x0
  2033                           
  2034     002E                     ??_I2C_SlaveSetSlaveAddr:	
  2035                           ; 1 bytes @ 0x0
  2036                           
  2037     002E                     ??_I2C_SlaveSetSlaveMask:	
  2038                           ; 1 bytes @ 0x0
  2039                           
  2040     002E                     ?_I2C_SlaveSetIsrHandler:	
  2041                           ; 1 bytes @ 0x0
  2042                           
  2043     002E                     ?_I2C_SlaveSetBusColIntHandler:	
  2044                           ; 1 bytes @ 0x0
  2045                           
  2046     002E                     ?_I2C_SlaveSetReadIntHandler:	
  2047                           ; 1 bytes @ 0x0
  2048                           
  2049     002E                     ?_I2C_SlaveSetWrColIntHandler:	
  2050                           ; 1 bytes @ 0x0
  2051                           
  2052     002E                     ??_I2C_SlaveEnableIrq:	
  2053                           ; 1 bytes @ 0x0
  2054                           
  2055     002E                     ??_PIN_MANAGER_Initialize:	
  2056                           ; 1 bytes @ 0x0
  2057                           
  2058     002E                     I2C_SlaveSetSlaveAddr@slaveAddr:	
  2059                           ; 1 bytes @ 0x0
  2060                           
  2061     002E                     I2C_SlaveSetSlaveMask@maskAddr:	
  2062                           ; 1 bytes @ 0x0
  2063                           
  2064     002E                     I2C_SlaveSetIsrHandler@handler:	
  2065                           ; 1 bytes @ 0x0
  2066                           
  2067     002E                     I2C_SlaveSetReadIntHandler@handler:	
  2068                           ; 2 bytes @ 0x0
  2069                           
  2070     002E                     I2C_SlaveSetWriteIntHandler@handler:	
  2071                           ; 2 bytes @ 0x0
  2072                           
  2073     002E                     I2C_SlaveSetAddrIntHandler@handler:	
  2074                           ; 2 bytes @ 0x0
  2075                           
  2076     002E                     I2C_SlaveSetWrColIntHandler@handler:	
  2077                           ; 2 bytes @ 0x0
  2078                           
  2079     002E                     I2C_SlaveSetBusColIntHandler@handler:	
  2080                           ; 2 bytes @ 0x0
  2081                           
  2082                           
  2083                           ; 2 bytes @ 0x0
  2084     002E                     	ds	1
  2085     002F                     ??_SYSTEM_Initialize:
  2086                           
  2087                           ; 1 bytes @ 0x1
  2088     002F                     	ds	1
  2089     0030                     ??_I2C_Open:
  2090     0030                     ??_I2C_SlaveSetWriteIntHandler:	
  2091                           ; 1 bytes @ 0x2
  2092                           
  2093     0030                     ??_I2C_SlaveSetAddrIntHandler:	
  2094                           ; 1 bytes @ 0x2
  2095                           
  2096     0030                     ??_I2C_SlaveSetIsrHandler:	
  2097                           ; 1 bytes @ 0x2
  2098                           
  2099     0030                     ??_I2C_SlaveSetBusColIntHandler:	
  2100                           ; 1 bytes @ 0x2
  2101                           
  2102     0030                     ??_I2C_SlaveSetReadIntHandler:	
  2103                           ; 1 bytes @ 0x2
  2104                           
  2105     0030                     ??_I2C_SlaveSetWrColIntHandler:	
  2106                           ; 1 bytes @ 0x2
  2107                           
  2108     0030                     ??_main:	
  2109                           ; 1 bytes @ 0x2
  2110                           
  2111                           
  2112                           	psect	maintext
  2113     00A6                     __pmaintext:	
  2114                           ; 1 bytes @ 0x2
  2115 ;;
  2116 ;;Main: autosize = 0, tempsize = 0, incstack = 0, save=0
  2117 ;;
  2118 ;; *************** function _main *****************
  2119 ;; Defined at:
  2120 ;;		line 25 in file "main.c"
  2121 ;; Parameters:    Size  Location     Type
  2122 ;;		None
  2123 ;; Auto vars:     Size  Location     Type
  2124 ;;		None
  2125 ;; Return value:  Size  Location     Type
  2126 ;;                  1    wreg      void 
  2127 ;; Registers used:
  2128 ;;		wreg, status,2, status,0, pclath, cstack
  2129 ;; Tracked objects:
  2130 ;;		On entry : B1F/0
  2131 ;;		On exit  : 0/0
  2132 ;;		Unchanged: 0/0
  2133 ;; Data sizes:     COMMON   BANK0   BANK1   BANK2   BANK3   BANK4   BANK5   BANK6
  2134 ;;      Params:         0       0       0       0       0       0       0       0
  2135 ;;      Locals:         0       0       0       0       0       0       0       0
  2136 ;;      Temps:          0       0       0       0       0       0       0       0
  2137 ;;      Totals:         0       0       0       0       0       0       0       0
  2138 ;;Total ram usage:        0 bytes
  2139 ;; Hardware stack levels required when called: 8
  2140 ;; This function calls:
  2141 ;;		_I2C_Initialize
  2142 ;;		_I2C_Open
  2143 ;;		_I2C_SlaveSetAddrIntHandler
  2144 ;;		_I2C_SlaveSetWriteIntHandler
  2145 ;;		_SYSTEM_Initialize
  2146 ;; This function is called by:
  2147 ;;		Startup code after reset
  2148 ;; This function uses a non-reentrant model
  2149 ;;
  2150                           
  2151     00A6                     _main:	
  2152                           ;psect for function _main
  2153                           
  2154     00A6                     l1822:	
  2155                           ;incstack = 0
  2156                           ; Regs used in _main: [wreg+status,2+status,0+pclath+cstack]
  2157                           
  2158                           
  2159                           ;main.c: 28:     SYSTEM_Initialize();
  2160     00A6  3181  2165  3180   	fcall	_SYSTEM_Initialize
  2161     00A9                     l1824:
  2162                           
  2163                           ;main.c: 29:     (INTCONbits.GIE = 1);
  2164     00A9  178B               	bsf	11,7	;volatile
  2165     00AA                     l1826:
  2166                           
  2167                           ;main.c: 30:     (INTCONbits.PEIE = 1);
  2168     00AA  170B               	bsf	11,6	;volatile
  2169                           
  2170                           ;main.c: 31:     I2C_Initialize();
  2171     00AB  3181  2199  3180   	fcall	_I2C_Initialize
  2172     00AE                     l1828:
  2173                           
  2174                           ;main.c: 33:     EEDATH = 0;
  2175     00AE  0023               	movlb	3	; select bank3
  2176     00AF  0194               	clrf	20	;volatile
  2177     00B0                     l1830:
  2178                           
  2179                           ;main.c: 34:     EEDATL = 0;
  2180     00B0  0193               	clrf	19	;volatile
  2181                           
  2182                           ;main.c: 36:     while(!PORTAbits.RA1) __asm("nop");
  2183     00B1  28B3               	goto	l138
  2184     00B2                     l139:
  2185     00B2  0000               	nop	;# 
  2186     00B3                     l138:
  2187     00B3  0020               	movlb	0	; select bank0
  2188     00B4  1C8C               	btfss	12,1	;volatile
  2189     00B5  28B7               	goto	u471
  2190     00B6  28B8               	goto	u470
  2191     00B7                     u471:
  2192     00B7  28B2               	goto	l139
  2193     00B8                     u470:
  2194     00B8  28BA               	goto	l141
  2195     00B9                     l142:
  2196     00B9  0000               	nop	;# 
  2197     00BA                     l141:
  2198     00BA  0020               	movlb	0	; select bank0
  2199     00BB  188C               	btfsc	12,1	;volatile
  2200     00BC  28BE               	goto	u481
  2201     00BD  28BF               	goto	u480
  2202     00BE                     u481:
  2203     00BE  28B9               	goto	l142
  2204     00BF                     u480:
  2205     00BF                     l1832:
  2206                           
  2207                           ;main.c: 39:     I2C_Open();
  2208     00BF  3180  20EA  3180   	fcall	_I2C_Open
  2209                           
  2210                           ;main.c: 40:     I2C_SlaveSetWriteIntHandler(ReadIntHandler);
  2211     00C2  3044               	movlw	low _ReadIntHandler
  2212     00C3  0020               	movlb	0	; select bank0
  2213     00C4  00AE               	movwf	I2C_SlaveSetWriteIntHandler@handler
  2214     00C5  3001               	movlw	high _ReadIntHandler
  2215     00C6  00AF               	movwf	I2C_SlaveSetWriteIntHandler@handler+1
  2216     00C7  3181  21BF  3180   	fcall	_I2C_SlaveSetWriteIntHandler
  2217                           
  2218                           ;main.c: 41:     I2C_SlaveSetAddrIntHandler(AddressIntHandler);
  2219     00CA  301F               	movlw	low _AddressIntHandler
  2220     00CB  0020               	movlb	0	; select bank0
  2221     00CC  00AE               	movwf	I2C_SlaveSetAddrIntHandler@handler
  2222     00CD  3002               	movlw	high _AddressIntHandler
  2223     00CE  00AF               	movwf	I2C_SlaveSetAddrIntHandler@handler+1
  2224     00CF  3181  21E9  3180   	fcall	_I2C_SlaveSetAddrIntHandler
  2225     00D2                     l1834:
  2226                           
  2227                           ;main.c: 44:     EEADRL = (0xAAA & 0x00FF);
  2228     00D2  30AA               	movlw	170
  2229     00D3  0023               	movlb	3	; select bank3
  2230     00D4  0091               	movwf	17	;volatile
  2231     00D5                     l1836:
  2232                           
  2233                           ;main.c: 45:     EEADRH = ((0xAAA & 0xFF00) >> 8);
  2234     00D5  300A               	movlw	10
  2235     00D6  0092               	movwf	18	;volatile
  2236     00D7                     l1838:
  2237                           
  2238                           ;main.c: 47:     EECON1bits.CFGS = 0;
  2239     00D7  1315               	bcf	21,6	;volsfr
  2240     00D8                     l1840:
  2241                           
  2242                           ;main.c: 48:     EECON1bits.EEPGD = 1;
  2243     00D8  1795               	bsf	21,7	;volsfr
  2244     00D9                     l1842:
  2245     00D9  0022               	movlb	2	; select bank2
  2246     00DA  140C               	bsf	12,0	;volatile
  2247     00DB                     l1844:
  2248                           
  2249                           ;main.c: 51:     EECON1bits.RD = 1;
  2250     00DB  0023               	movlb	3	; select bank3
  2251     00DC  1415               	bsf	21,0	;volsfr
  2252     00DD                     l1846:
  2253                           
  2254                           ;main.c: 52:     __nop();
  2255     00DD  0000               	nop
  2256     00DE                     l1848:
  2257                           
  2258                           ;main.c: 53:     __nop();
  2259     00DE  0000               	nop
  2260     00DF                     l1850:
  2261     00DF  0022               	movlb	2	; select bank2
  2262     00E0  100C               	bcf	12,0	;volatile
  2263     00E1                     l1852:
  2264                           
  2265                           ;main.c: 55:     datl = EEDATL;
  2266     00E1  0023               	movlb	3	; select bank3
  2267     00E2  0813               	movf	19,w	;volatile
  2268     00E3  00F5               	movwf	_datl	;volatile
  2269     00E4                     l1854:
  2270                           
  2271                           ;main.c: 56:     dath = EEDATH;
  2272     00E4  0814               	movf	20,w	;volatile
  2273     00E5  00F4               	movwf	_dath	;volatile
  2274     00E6                     l148:	
  2275                           ;main.c: 60:     while(1) __asm("nop");
  2276                           
  2277     00E6  0000               	nop	;# 
  2278     00E7  28E6               	goto	l148
  2279     00E8  3180  2827         	ljmp	start
  2280     00EA                     __end_of_main:
  2281                           
  2282                           	psect	text1
  2283     0165                     __ptext1:	
  2284 ;; *************** function _SYSTEM_Initialize *****************
  2285 ;; Defined at:
  2286 ;;		line 50 in file "mcc_generated_files/mcc.c"
  2287 ;; Parameters:    Size  Location     Type
  2288 ;;		None
  2289 ;; Auto vars:     Size  Location     Type
  2290 ;;		None
  2291 ;; Return value:  Size  Location     Type
  2292 ;;                  1    wreg      void 
  2293 ;; Registers used:
  2294 ;;		wreg, status,2, status,0, pclath, cstack
  2295 ;; Tracked objects:
  2296 ;;		On entry : 0/0
  2297 ;;		On exit  : 0/0
  2298 ;;		Unchanged: 0/0
  2299 ;; Data sizes:     COMMON   BANK0   BANK1   BANK2   BANK3   BANK4   BANK5   BANK6
  2300 ;;      Params:         0       0       0       0       0       0       0       0
  2301 ;;      Locals:         0       0       0       0       0       0       0       0
  2302 ;;      Temps:          0       0       0       0       0       0       0       0
  2303 ;;      Totals:         0       0       0       0       0       0       0       0
  2304 ;;Total ram usage:        0 bytes
  2305 ;; Hardware stack levels used: 1
  2306 ;; Hardware stack levels required when called: 7
  2307 ;; This function calls:
  2308 ;;		_I2C_Initialize
  2309 ;;		_OSCILLATOR_Initialize
  2310 ;;		_PIN_MANAGER_Initialize
  2311 ;;		_WDT_Initialize
  2312 ;; This function is called by:
  2313 ;;		_main
  2314 ;; This function uses a non-reentrant model
  2315 ;;
  2316                           
  2317     0165                     _SYSTEM_Initialize:	
  2318                           ;psect for function _SYSTEM_Initialize
  2319                           
  2320     0165                     l1816:	
  2321                           ;incstack = 0
  2322                           ; Regs used in _SYSTEM_Initialize: [wreg+status,2+status,0+pclath+cstack]
  2323                           
  2324                           
  2325                           ;mcc_generated_files/mcc.c: 53:     I2C_Initialize();
  2326     0165  3181  2199  3181   	fcall	_I2C_Initialize
  2327                           
  2328                           ;mcc_generated_files/mcc.c: 54:     PIN_MANAGER_Initialize();
  2329     0168  3181  2129  3181   	fcall	_PIN_MANAGER_Initialize
  2330                           
  2331                           ;mcc_generated_files/mcc.c: 55:     OSCILLATOR_Initialize();
  2332     016B  3181  21A4  3181   	fcall	_OSCILLATOR_Initialize
  2333                           
  2334                           ;mcc_generated_files/mcc.c: 56:     WDT_Initialize();
  2335     016E  3182  220E  3181   	fcall	_WDT_Initialize
  2336     0171                     l65:
  2337     0171  0008               	return
  2338     0172                     __end_of_SYSTEM_Initialize:
  2339                           
  2340                           	psect	text2
  2341     020E                     __ptext2:	
  2342 ;; *************** function _WDT_Initialize *****************
  2343 ;; Defined at:
  2344 ;;		line 69 in file "mcc_generated_files/mcc.c"
  2345 ;; Parameters:    Size  Location     Type
  2346 ;;		None
  2347 ;; Auto vars:     Size  Location     Type
  2348 ;;		None
  2349 ;; Return value:  Size  Location     Type
  2350 ;;                  1    wreg      void 
  2351 ;; Registers used:
  2352 ;;		wreg
  2353 ;; Tracked objects:
  2354 ;;		On entry : 0/0
  2355 ;;		On exit  : 0/0
  2356 ;;		Unchanged: 0/0
  2357 ;; Data sizes:     COMMON   BANK0   BANK1   BANK2   BANK3   BANK4   BANK5   BANK6
  2358 ;;      Params:         0       0       0       0       0       0       0       0
  2359 ;;      Locals:         0       0       0       0       0       0       0       0
  2360 ;;      Temps:          0       0       0       0       0       0       0       0
  2361 ;;      Totals:         0       0       0       0       0       0       0       0
  2362 ;;Total ram usage:        0 bytes
  2363 ;; Hardware stack levels used: 1
  2364 ;; Hardware stack levels required when called: 6
  2365 ;; This function calls:
  2366 ;;		Nothing
  2367 ;; This function is called by:
  2368 ;;		_SYSTEM_Initialize
  2369 ;; This function uses a non-reentrant model
  2370 ;;
  2371                           
  2372     020E                     _WDT_Initialize:	
  2373                           ;psect for function _WDT_Initialize
  2374                           
  2375     020E                     l1784:	
  2376                           ;incstack = 0
  2377                           ; Regs used in _WDT_Initialize: [wreg]
  2378                           
  2379                           
  2380                           ;mcc_generated_files/mcc.c: 72:     WDTCON = 0x16;
  2381     020E  3016               	movlw	22
  2382     020F  0021               	movlb	1	; select bank1
  2383     0210  0097               	movwf	23	;volatile
  2384     0211                     l71:
  2385     0211  0008               	return
  2386     0212                     __end_of_WDT_Initialize:
  2387                           
  2388                           	psect	text3
  2389     0129                     __ptext3:	
  2390 ;; *************** function _PIN_MANAGER_Initialize *****************
  2391 ;; Defined at:
  2392 ;;		line 55 in file "mcc_generated_files/pin_manager.c"
  2393 ;; Parameters:    Size  Location     Type
  2394 ;;		None
  2395 ;; Auto vars:     Size  Location     Type
  2396 ;;		None
  2397 ;; Return value:  Size  Location     Type
  2398 ;;                  1    wreg      void 
  2399 ;; Registers used:
  2400 ;;		wreg, status,2
  2401 ;; Tracked objects:
  2402 ;;		On entry : 0/0
  2403 ;;		On exit  : 0/0
  2404 ;;		Unchanged: 0/0
  2405 ;; Data sizes:     COMMON   BANK0   BANK1   BANK2   BANK3   BANK4   BANK5   BANK6
  2406 ;;      Params:         0       0       0       0       0       0       0       0
  2407 ;;      Locals:         0       0       0       0       0       0       0       0
  2408 ;;      Temps:          0       0       0       0       0       0       0       0
  2409 ;;      Totals:         0       0       0       0       0       0       0       0
  2410 ;;Total ram usage:        0 bytes
  2411 ;; Hardware stack levels used: 1
  2412 ;; Hardware stack levels required when called: 6
  2413 ;; This function calls:
  2414 ;;		Nothing
  2415 ;; This function is called by:
  2416 ;;		_SYSTEM_Initialize
  2417 ;; This function uses a non-reentrant model
  2418 ;;
  2419                           
  2420     0129                     _PIN_MANAGER_Initialize:	
  2421                           ;psect for function _PIN_MANAGER_Initialize
  2422                           
  2423     0129                     l1754:	
  2424                           ;incstack = 0
  2425                           ; Regs used in _PIN_MANAGER_Initialize: [wreg+status,2]
  2426                           
  2427                           
  2428                           ;mcc_generated_files/pin_manager.c: 60:     LATE = 0x00;
  2429     0129  0022               	movlb	2	; select bank2
  2430     012A  0190               	clrf	16	;volatile
  2431                           
  2432                           ;mcc_generated_files/pin_manager.c: 61:     LATA = 0x00;
  2433     012B  018C               	clrf	12	;volatile
  2434                           
  2435                           ;mcc_generated_files/pin_manager.c: 62:     LATB = 0x00;
  2436     012C  018D               	clrf	13	;volatile
  2437                           
  2438                           ;mcc_generated_files/pin_manager.c: 63:     LATC = 0x00;
  2439     012D  018E               	clrf	14	;volatile
  2440     012E                     l1756:
  2441                           
  2442                           ;mcc_generated_files/pin_manager.c: 68:     TRISE = 0x08;
  2443     012E  3008               	movlw	8
  2444     012F  0021               	movlb	1	; select bank1
  2445     0130  0090               	movwf	16	;volatile
  2446     0131                     l1758:
  2447                           
  2448                           ;mcc_generated_files/pin_manager.c: 69:     TRISA = 0xFE;
  2449     0131  30FE               	movlw	254
  2450     0132  008C               	movwf	12	;volatile
  2451     0133                     l1760:
  2452                           
  2453                           ;mcc_generated_files/pin_manager.c: 70:     TRISB = 0xFF;
  2454     0133  30FF               	movlw	255
  2455     0134  008D               	movwf	13	;volatile
  2456     0135                     l1762:
  2457                           
  2458                           ;mcc_generated_files/pin_manager.c: 71:     TRISC = 0xFF;
  2459     0135  30FF               	movlw	255
  2460     0136  008E               	movwf	14	;volatile
  2461     0137                     l1764:
  2462                           
  2463                           ;mcc_generated_files/pin_manager.c: 76:     ANSELB = 0x3F;
  2464     0137  303F               	movlw	63
  2465     0138  0023               	movlb	3	; select bank3
  2466     0139  008D               	movwf	13	;volatile
  2467     013A                     l1766:
  2468                           
  2469                           ;mcc_generated_files/pin_manager.c: 77:     ANSELA = 0x3D;
  2470     013A  303D               	movlw	61
  2471     013B  008C               	movwf	12	;volatile
  2472                           
  2473                           ;mcc_generated_files/pin_manager.c: 82:     WPUE = 0x00;
  2474     013C  0024               	movlb	4	; select bank4
  2475     013D  0190               	clrf	16	;volatile
  2476                           
  2477                           ;mcc_generated_files/pin_manager.c: 83:     WPUB = 0x00;
  2478     013E  018D               	clrf	13	;volatile
  2479     013F                     l1768:
  2480                           
  2481                           ;mcc_generated_files/pin_manager.c: 84:     OPTION_REGbits.nWPUEN = 1;
  2482     013F  0021               	movlb	1	; select bank1
  2483     0140  1795               	bsf	21,7	;volatile
  2484                           
  2485                           ;mcc_generated_files/pin_manager.c: 90:     APFCON = 0x00;
  2486     0141  0022               	movlb	2	; select bank2
  2487     0142  019D               	clrf	29	;volatile
  2488     0143                     l31:
  2489     0143  0008               	return
  2490     0144                     __end_of_PIN_MANAGER_Initialize:
  2491                           
  2492                           	psect	text4
  2493     01A4                     __ptext4:	
  2494 ;; *************** function _OSCILLATOR_Initialize *****************
  2495 ;; Defined at:
  2496 ;;		line 59 in file "mcc_generated_files/mcc.c"
  2497 ;; Parameters:    Size  Location     Type
  2498 ;;		None
  2499 ;; Auto vars:     Size  Location     Type
  2500 ;;		None
  2501 ;; Return value:  Size  Location     Type
  2502 ;;                  1    wreg      void 
  2503 ;; Registers used:
  2504 ;;		wreg, status,2
  2505 ;; Tracked objects:
  2506 ;;		On entry : 0/0
  2507 ;;		On exit  : 0/0
  2508 ;;		Unchanged: 0/0
  2509 ;; Data sizes:     COMMON   BANK0   BANK1   BANK2   BANK3   BANK4   BANK5   BANK6
  2510 ;;      Params:         0       0       0       0       0       0       0       0
  2511 ;;      Locals:         0       0       0       0       0       0       0       0
  2512 ;;      Temps:          0       0       0       0       0       0       0       0
  2513 ;;      Totals:         0       0       0       0       0       0       0       0
  2514 ;;Total ram usage:        0 bytes
  2515 ;; Hardware stack levels used: 1
  2516 ;; Hardware stack levels required when called: 6
  2517 ;; This function calls:
  2518 ;;		Nothing
  2519 ;; This function is called by:
  2520 ;;		_SYSTEM_Initialize
  2521 ;; This function uses a non-reentrant model
  2522 ;;
  2523                           
  2524     01A4                     _OSCILLATOR_Initialize:	
  2525                           ;psect for function _OSCILLATOR_Initialize
  2526                           
  2527     01A4                     l1778:	
  2528                           ;incstack = 0
  2529                           ; Regs used in _OSCILLATOR_Initialize: [wreg+status,2]
  2530                           
  2531                           
  2532                           ;mcc_generated_files/mcc.c: 62:     OSCCON = 0x3A;
  2533     01A4  303A               	movlw	58
  2534     01A5  0021               	movlb	1	; select bank1
  2535     01A6  0099               	movwf	25	;volatile
  2536     01A7                     l1780:
  2537                           
  2538                           ;mcc_generated_files/mcc.c: 64:     OSCTUNE = 0x00;
  2539     01A7  0198               	clrf	24	;volatile
  2540     01A8                     l1782:
  2541                           
  2542                           ;mcc_generated_files/mcc.c: 66:     BORCON = 0x00;
  2543     01A8  0022               	movlb	2	; select bank2
  2544     01A9  0196               	clrf	22	;volatile
  2545     01AA                     l68:
  2546     01AA  0008               	return
  2547     01AB                     __end_of_OSCILLATOR_Initialize:
  2548                           
  2549                           	psect	text5
  2550     0199                     __ptext5:	
  2551 ;; *************** function _I2C_Initialize *****************
  2552 ;; Defined at:
  2553 ;;		line 108 in file "mcc_generated_files/i2c_slave.c"
  2554 ;; Parameters:    Size  Location     Type
  2555 ;;		None
  2556 ;; Auto vars:     Size  Location     Type
  2557 ;;		None
  2558 ;; Return value:  Size  Location     Type
  2559 ;;                  1    wreg      void 
  2560 ;; Registers used:
  2561 ;;		wreg, status,2, status,0
  2562 ;; Tracked objects:
  2563 ;;		On entry : 0/0
  2564 ;;		On exit  : 0/0
  2565 ;;		Unchanged: 0/0
  2566 ;; Data sizes:     COMMON   BANK0   BANK1   BANK2   BANK3   BANK4   BANK5   BANK6
  2567 ;;      Params:         0       0       0       0       0       0       0       0
  2568 ;;      Locals:         0       0       0       0       0       0       0       0
  2569 ;;      Temps:          0       1       0       0       0       0       0       0
  2570 ;;      Totals:         0       1       0       0       0       0       0       0
  2571 ;;Total ram usage:        1 bytes
  2572 ;; Hardware stack levels used: 1
  2573 ;; Hardware stack levels required when called: 6
  2574 ;; This function calls:
  2575 ;;		Nothing
  2576 ;; This function is called by:
  2577 ;;		_SYSTEM_Initialize
  2578 ;;		_main
  2579 ;;		_I2C_Enable
  2580 ;; This function uses a non-reentrant model
  2581 ;;
  2582                           
  2583     0199                     _I2C_Initialize:	
  2584                           ;psect for function _I2C_Initialize
  2585                           
  2586     0199                     l1770:	
  2587                           ;incstack = 0
  2588                           ; Regs used in _I2C_Initialize: [wreg+status,2+status,0]
  2589                           
  2590                           
  2591                           ;mcc_generated_files/i2c_slave.c: 110:     SSPSTAT = 0x00;
  2592     0199  0024               	movlb	4	; select bank4
  2593     019A  0194               	clrf	20	;volatile
  2594     019B                     l1772:
  2595                           
  2596                           ;mcc_generated_files/i2c_slave.c: 111:     SSPCON1 |= 0x06;
  2597     019B  3006               	movlw	6
  2598     019C  0020               	movlb	0	; select bank0
  2599     019D  00AE               	movwf	??_I2C_Initialize
  2600     019E  082E               	movf	??_I2C_Initialize,w
  2601     019F  0024               	movlb	4	; select bank4
  2602     01A0  0495               	iorwf	21,f	;volatile
  2603     01A1                     l1774:
  2604                           
  2605                           ;mcc_generated_files/i2c_slave.c: 112:     SSPCON2 = 0x00;
  2606     01A1  0196               	clrf	22	;volatile
  2607     01A2                     l1776:
  2608                           
  2609                           ;mcc_generated_files/i2c_slave.c: 113:     SSPCON1bits.SSPEN = 0;
  2610     01A2  1295               	bcf	21,5	;volatile
  2611     01A3                     l312:
  2612     01A3  0008               	return
  2613     01A4                     __end_of_I2C_Initialize:
  2614                           
  2615                           	psect	text6
  2616     00EA                     __ptext6:	
  2617 ;; *************** function _I2C_Open *****************
  2618 ;; Defined at:
  2619 ;;		line 116 in file "mcc_generated_files/i2c_slave.c"
  2620 ;; Parameters:    Size  Location     Type
  2621 ;;		None
  2622 ;; Auto vars:     Size  Location     Type
  2623 ;;		None
  2624 ;; Return value:  Size  Location     Type
  2625 ;;                  1    wreg      void 
  2626 ;; Registers used:
  2627 ;;		wreg, status,2, status,0, pclath, cstack
  2628 ;; Tracked objects:
  2629 ;;		On entry : 0/0
  2630 ;;		On exit  : 0/0
  2631 ;;		Unchanged: 0/0
  2632 ;; Data sizes:     COMMON   BANK0   BANK1   BANK2   BANK3   BANK4   BANK5   BANK6
  2633 ;;      Params:         0       0       0       0       0       0       0       0
  2634 ;;      Locals:         0       0       0       0       0       0       0       0
  2635 ;;      Temps:          0       0       0       0       0       0       0       0
  2636 ;;      Totals:         0       0       0       0       0       0       0       0
  2637 ;;Total ram usage:        0 bytes
  2638 ;; Hardware stack levels used: 1
  2639 ;; Hardware stack levels required when called: 7
  2640 ;; This function calls:
  2641 ;;		_I2C_SlaveEnableIrq
  2642 ;;		_I2C_SlaveOpen
  2643 ;;		_I2C_SlaveSetAddrIntHandler
  2644 ;;		_I2C_SlaveSetBusColIntHandler
  2645 ;;		_I2C_SlaveSetIsrHandler
  2646 ;;		_I2C_SlaveSetReadIntHandler
  2647 ;;		_I2C_SlaveSetSlaveAddr
  2648 ;;		_I2C_SlaveSetSlaveMask
  2649 ;;		_I2C_SlaveSetWrColIntHandler
  2650 ;;		_I2C_SlaveSetWriteIntHandler
  2651 ;; This function is called by:
  2652 ;;		_main
  2653 ;; This function uses a non-reentrant model
  2654 ;;
  2655                           
  2656     00EA                     _I2C_Open:	
  2657                           ;psect for function _I2C_Open
  2658                           
  2659     00EA                     l1818:	
  2660                           ;incstack = 0
  2661                           ; Regs used in _I2C_Open: [wreg+status,2+status,0+pclath+cstack]
  2662                           
  2663                           
  2664                           ;mcc_generated_files/i2c_slave.c: 118:     I2C_SlaveOpen();
  2665     00EA  3181  2156  3180   	fcall	_I2C_SlaveOpen
  2666                           
  2667                           ;mcc_generated_files/i2c_slave.c: 119:     I2C_SlaveSetSlaveAddr(8);
  2668     00ED  3008               	movlw	8
  2669     00EE  3181  21D1  3180   	fcall	_I2C_SlaveSetSlaveAddr
  2670                           
  2671                           ;mcc_generated_files/i2c_slave.c: 120:     I2C_SlaveSetSlaveMask(127);
  2672     00F1  307F               	movlw	127
  2673     00F2  3181  21CB  3180   	fcall	_I2C_SlaveSetSlaveMask
  2674                           
  2675                           ;mcc_generated_files/i2c_slave.c: 121:     I2C_SlaveSetIsrHandler(I2C_Isr);
  2676     00F5  303D               	movlw	low _I2C_Isr
  2677     00F6  0020               	movlb	0	; select bank0
  2678     00F7  00AE               	movwf	I2C_SlaveSetIsrHandler@handler
  2679     00F8  3000               	movlw	high _I2C_Isr
  2680     00F9  00AF               	movwf	I2C_SlaveSetIsrHandler@handler+1
  2681     00FA  3181  21DD  3180   	fcall	_I2C_SlaveSetIsrHandler
  2682                           
  2683                           ;mcc_generated_files/i2c_slave.c: 122:     I2C_SlaveSetBusColIntHandler(I2C_SlaveDefBusC
      +                          olInterruptHandler);
  2684     00FD  3000               	movlw	0
  2685     00FE  0020               	movlb	0	; select bank0
  2686     00FF  00AE               	movwf	I2C_SlaveSetBusColIntHandler@handler
  2687     0100  3000               	movlw	0
  2688     0101  00AF               	movwf	I2C_SlaveSetBusColIntHandler@handler+1
  2689     0102  3181  21E3  3180   	fcall	_I2C_SlaveSetBusColIntHandler
  2690                           
  2691                           ;mcc_generated_files/i2c_slave.c: 123:     I2C_SlaveSetWriteIntHandler(I2C_SlaveDefWrInt
      +                          erruptHandler);
  2692     0105  30F5               	movlw	low _I2C_SlaveDefWrInterruptHandler
  2693     0106  0020               	movlb	0	; select bank0
  2694     0107  00AE               	movwf	I2C_SlaveSetWriteIntHandler@handler
  2695     0108  3001               	movlw	high _I2C_SlaveDefWrInterruptHandler
  2696     0109  00AF               	movwf	I2C_SlaveSetWriteIntHandler@handler+1
  2697     010A  3181  21BF  3180   	fcall	_I2C_SlaveSetWriteIntHandler
  2698                           
  2699                           ;mcc_generated_files/i2c_slave.c: 124:     I2C_SlaveSetReadIntHandler(I2C_SlaveDefRdInte
      +                          rruptHandler);
  2700     010D  30FF               	movlw	low _I2C_SlaveDefRdInterruptHandler
  2701     010E  0020               	movlb	0	; select bank0
  2702     010F  00AE               	movwf	I2C_SlaveSetReadIntHandler@handler
  2703     0110  3001               	movlw	high _I2C_SlaveDefRdInterruptHandler
  2704     0111  00AF               	movwf	I2C_SlaveSetReadIntHandler@handler+1
  2705     0112  3181  21D7  3180   	fcall	_I2C_SlaveSetReadIntHandler
  2706                           
  2707                           ;mcc_generated_files/i2c_slave.c: 125:     I2C_SlaveSetAddrIntHandler(I2C_SlaveDefAddrIn
      +                          terruptHandler);
  2708     0115  3009               	movlw	low _I2C_SlaveDefAddrInterruptHandler
  2709     0116  0020               	movlb	0	; select bank0
  2710     0117  00AE               	movwf	I2C_SlaveSetAddrIntHandler@handler
  2711     0118  3002               	movlw	high _I2C_SlaveDefAddrInterruptHandler
  2712     0119  00AF               	movwf	I2C_SlaveSetAddrIntHandler@handler+1
  2713     011A  3181  21E9  3180   	fcall	_I2C_SlaveSetAddrIntHandler
  2714                           
  2715                           ;mcc_generated_files/i2c_slave.c: 126:     I2C_SlaveSetWrColIntHandler(I2C_SlaveDefWrCol
      +                          InterruptHandler);
  2716     011D  3000               	movlw	0
  2717     011E  0020               	movlb	0	; select bank0
  2718     011F  00AE               	movwf	I2C_SlaveSetWrColIntHandler@handler
  2719     0120  3000               	movlw	0
  2720     0121  00AF               	movwf	I2C_SlaveSetWrColIntHandler@handler+1
  2721     0122  3181  21C5  3180   	fcall	_I2C_SlaveSetWrColIntHandler
  2722     0125                     l1820:
  2723                           
  2724                           ;mcc_generated_files/i2c_slave.c: 127:     I2C_SlaveEnableIrq();
  2725     0125  3182  2216  3180   	fcall	_I2C_SlaveEnableIrq
  2726     0128                     l315:
  2727     0128  0008               	return
  2728     0129                     __end_of_I2C_Open:
  2729                           
  2730                           	psect	text7
  2731     01BF                     __ptext7:	
  2732 ;; *************** function _I2C_SlaveSetWriteIntHandler *****************
  2733 ;; Defined at:
  2734 ;;		line 246 in file "mcc_generated_files/i2c_slave.c"
  2735 ;; Parameters:    Size  Location     Type
  2736 ;;  handler         2    0[BANK0 ] PTR FTN()void 
  2737 ;;		 -> I2C_SlaveDefWrInterruptHandler(1), ReadIntHandler(1), 
  2738 ;; Auto vars:     Size  Location     Type
  2739 ;;		None
  2740 ;; Return value:  Size  Location     Type
  2741 ;;                  1    wreg      void 
  2742 ;; Registers used:
  2743 ;;		wreg
  2744 ;; Tracked objects:
  2745 ;;		On entry : 0/0
  2746 ;;		On exit  : 0/0
  2747 ;;		Unchanged: 0/0
  2748 ;; Data sizes:     COMMON   BANK0   BANK1   BANK2   BANK3   BANK4   BANK5   BANK6
  2749 ;;      Params:         0       2       0       0       0       0       0       0
  2750 ;;      Locals:         0       0       0       0       0       0       0       0
  2751 ;;      Temps:          0       0       0       0       0       0       0       0
  2752 ;;      Totals:         0       2       0       0       0       0       0       0
  2753 ;;Total ram usage:        2 bytes
  2754 ;; Hardware stack levels used: 1
  2755 ;; Hardware stack levels required when called: 6
  2756 ;; This function calls:
  2757 ;;		Nothing
  2758 ;; This function is called by:
  2759 ;;		_main
  2760 ;;		_I2C_Open
  2761 ;; This function uses a non-reentrant model
  2762 ;;
  2763                           
  2764     01BF                     _I2C_SlaveSetWriteIntHandler:	
  2765                           ;psect for function _I2C_SlaveSetWriteIntHandler
  2766                           
  2767     01BF                     l1786:	
  2768                           ;incstack = 0
  2769                           ; Regs used in _I2C_SlaveSetWriteIntHandler: [wreg]
  2770                           
  2771                           
  2772                           ;mcc_generated_files/i2c_slave.c: 247:     I2C_SlaveWrInterruptHandler = handler;
  2773     01BF  0020               	movlb	0	; select bank0
  2774     01C0  082F               	movf	I2C_SlaveSetWriteIntHandler@handler+1,w
  2775     01C1  00A9               	movwf	_I2C_SlaveWrInterruptHandler+1
  2776     01C2  082E               	movf	I2C_SlaveSetWriteIntHandler@handler,w
  2777     01C3  00A8               	movwf	_I2C_SlaveWrInterruptHandler
  2778     01C4                     l371:
  2779     01C4  0008               	return
  2780     01C5                     __end_of_I2C_SlaveSetWriteIntHandler:
  2781                           
  2782                           	psect	text8
  2783     01C5                     __ptext8:	
  2784 ;; *************** function _I2C_SlaveSetWrColIntHandler *****************
  2785 ;; Defined at:
  2786 ;;		line 279 in file "mcc_generated_files/i2c_slave.c"
  2787 ;; Parameters:    Size  Location     Type
  2788 ;;  handler         2    0[BANK0 ] PTR FTN()void 
  2789 ;;		 -> I2C_SlaveDefWrColInterruptHandler(1), 
  2790 ;; Auto vars:     Size  Location     Type
  2791 ;;		None
  2792 ;; Return value:  Size  Location     Type
  2793 ;;                  1    wreg      void 
  2794 ;; Registers used:
  2795 ;;		wreg
  2796 ;; Tracked objects:
  2797 ;;		On entry : 0/0
  2798 ;;		On exit  : 0/0
  2799 ;;		Unchanged: 0/0
  2800 ;; Data sizes:     COMMON   BANK0   BANK1   BANK2   BANK3   BANK4   BANK5   BANK6
  2801 ;;      Params:         0       2       0       0       0       0       0       0
  2802 ;;      Locals:         0       0       0       0       0       0       0       0
  2803 ;;      Temps:          0       0       0       0       0       0       0       0
  2804 ;;      Totals:         0       2       0       0       0       0       0       0
  2805 ;;Total ram usage:        2 bytes
  2806 ;; Hardware stack levels used: 1
  2807 ;; Hardware stack levels required when called: 6
  2808 ;; This function calls:
  2809 ;;		Nothing
  2810 ;; This function is called by:
  2811 ;;		_I2C_Open
  2812 ;; This function uses a non-reentrant model
  2813 ;;
  2814                           
  2815     01C5                     _I2C_SlaveSetWrColIntHandler:	
  2816                           ;psect for function _I2C_SlaveSetWrColIntHandler
  2817                           
  2818     01C5                     l1812:	
  2819                           ;incstack = 0
  2820                           ; Regs used in _I2C_SlaveSetWrColIntHandler: [wreg]
  2821                           
  2822                           
  2823                           ;mcc_generated_files/i2c_slave.c: 280:     I2C_SlaveWrColInterruptHandler = handler;
  2824     01C5  0020               	movlb	0	; select bank0
  2825     01C6  082F               	movf	I2C_SlaveSetWrColIntHandler@handler+1,w
  2826     01C7  00A3               	movwf	_I2C_SlaveWrColInterruptHandler+1
  2827     01C8  082E               	movf	I2C_SlaveSetWrColIntHandler@handler,w
  2828     01C9  00A2               	movwf	_I2C_SlaveWrColInterruptHandler
  2829     01CA                     l391:
  2830     01CA  0008               	return
  2831     01CB                     __end_of_I2C_SlaveSetWrColIntHandler:
  2832                           
  2833                           	psect	text9
  2834     01CB                     __ptext9:	
  2835 ;; *************** function _I2C_SlaveSetSlaveMask *****************
  2836 ;; Defined at:
  2837 ;;		line 336 in file "mcc_generated_files/i2c_slave.c"
  2838 ;; Parameters:    Size  Location     Type
  2839 ;;  maskAddr        1    wreg     unsigned char 
  2840 ;; Auto vars:     Size  Location     Type
  2841 ;;  maskAddr        1    0[BANK0 ] unsigned char 
  2842 ;; Return value:  Size  Location     Type
  2843 ;;                  1    wreg      void 
  2844 ;; Registers used:
  2845 ;;		wreg, status,2, status,0
  2846 ;; Tracked objects:
  2847 ;;		On entry : 0/0
  2848 ;;		On exit  : 0/0
  2849 ;;		Unchanged: 0/0
  2850 ;; Data sizes:     COMMON   BANK0   BANK1   BANK2   BANK3   BANK4   BANK5   BANK6
  2851 ;;      Params:         0       0       0       0       0       0       0       0
  2852 ;;      Locals:         0       1       0       0       0       0       0       0
  2853 ;;      Temps:          0       0       0       0       0       0       0       0
  2854 ;;      Totals:         0       1       0       0       0       0       0       0
  2855 ;;Total ram usage:        1 bytes
  2856 ;; Hardware stack levels used: 1
  2857 ;; Hardware stack levels required when called: 6
  2858 ;; This function calls:
  2859 ;;		Nothing
  2860 ;; This function is called by:
  2861 ;;		_I2C_Open
  2862 ;; This function uses a non-reentrant model
  2863 ;;
  2864                           
  2865     01CB                     _I2C_SlaveSetSlaveMask:	
  2866                           ;psect for function _I2C_SlaveSetSlaveMask
  2867                           
  2868                           
  2869                           ;incstack = 0
  2870                           ; Regs used in _I2C_SlaveSetSlaveMask: [wreg+status,2+status,0]
  2871                           ;I2C_SlaveSetSlaveMask@maskAddr stored from wreg
  2872     01CB  0020               	movlb	0	; select bank0
  2873     01CC  00AE               	movwf	I2C_SlaveSetSlaveMask@maskAddr
  2874     01CD                     l1804:
  2875                           
  2876                           ;mcc_generated_files/i2c_slave.c: 336: static __attribute__((inline)) void I2C_SlaveSetS
      +                          laveMask(uint8_t maskAddr);mcc_generated_files/i2c_slave.c: 337: {;mcc_generated_files/i
      +                          2c_slave.c: 338:     SSPMSK = (uint8_t) (maskAddr << 1);
  2877     01CD  352E               	lslf	I2C_SlaveSetSlaveMask@maskAddr,w
  2878     01CE  0024               	movlb	4	; select bank4
  2879     01CF  0093               	movwf	19	;volatile
  2880     01D0                     l421:
  2881     01D0  0008               	return
  2882     01D1                     __end_of_I2C_SlaveSetSlaveMask:
  2883                           
  2884                           	psect	text10
  2885     01D1                     __ptext10:	
  2886 ;; *************** function _I2C_SlaveSetSlaveAddr *****************
  2887 ;; Defined at:
  2888 ;;		line 331 in file "mcc_generated_files/i2c_slave.c"
  2889 ;; Parameters:    Size  Location     Type
  2890 ;;  slaveAddr       1    wreg     unsigned char 
  2891 ;; Auto vars:     Size  Location     Type
  2892 ;;  slaveAddr       1    0[BANK0 ] unsigned char 
  2893 ;; Return value:  Size  Location     Type
  2894 ;;                  1    wreg      void 
  2895 ;; Registers used:
  2896 ;;		wreg, status,2, status,0
  2897 ;; Tracked objects:
  2898 ;;		On entry : 0/0
  2899 ;;		On exit  : 0/0
  2900 ;;		Unchanged: 0/0
  2901 ;; Data sizes:     COMMON   BANK0   BANK1   BANK2   BANK3   BANK4   BANK5   BANK6
  2902 ;;      Params:         0       0       0       0       0       0       0       0
  2903 ;;      Locals:         0       1       0       0       0       0       0       0
  2904 ;;      Temps:          0       0       0       0       0       0       0       0
  2905 ;;      Totals:         0       1       0       0       0       0       0       0
  2906 ;;Total ram usage:        1 bytes
  2907 ;; Hardware stack levels used: 1
  2908 ;; Hardware stack levels required when called: 6
  2909 ;; This function calls:
  2910 ;;		Nothing
  2911 ;; This function is called by:
  2912 ;;		_I2C_Open
  2913 ;; This function uses a non-reentrant model
  2914 ;;
  2915                           
  2916     01D1                     _I2C_SlaveSetSlaveAddr:	
  2917                           ;psect for function _I2C_SlaveSetSlaveAddr
  2918                           
  2919                           
  2920                           ;incstack = 0
  2921                           ; Regs used in _I2C_SlaveSetSlaveAddr: [wreg+status,2+status,0]
  2922                           ;I2C_SlaveSetSlaveAddr@slaveAddr stored from wreg
  2923     01D1  0020               	movlb	0	; select bank0
  2924     01D2  00AE               	movwf	I2C_SlaveSetSlaveAddr@slaveAddr
  2925     01D3                     l1802:
  2926                           
  2927                           ;mcc_generated_files/i2c_slave.c: 331: static __attribute__((inline)) void I2C_SlaveSetS
      +                          laveAddr(uint8_t slaveAddr);mcc_generated_files/i2c_slave.c: 332: {;mcc_generated_files/
      +                          i2c_slave.c: 333:     SSPADD = (uint8_t) (slaveAddr << 1);
  2928     01D3  352E               	lslf	I2C_SlaveSetSlaveAddr@slaveAddr,w
  2929     01D4  0024               	movlb	4	; select bank4
  2930     01D5  0092               	movwf	18	;volatile
  2931     01D6                     l418:
  2932     01D6  0008               	return
  2933     01D7                     __end_of_I2C_SlaveSetSlaveAddr:
  2934                           
  2935                           	psect	text11
  2936     01D7                     __ptext11:	
  2937 ;; *************** function _I2C_SlaveSetReadIntHandler *****************
  2938 ;; Defined at:
  2939 ;;		line 229 in file "mcc_generated_files/i2c_slave.c"
  2940 ;; Parameters:    Size  Location     Type
  2941 ;;  handler         2    0[BANK0 ] PTR FTN()void 
  2942 ;;		 -> I2C_SlaveDefRdInterruptHandler(1), 
  2943 ;; Auto vars:     Size  Location     Type
  2944 ;;		None
  2945 ;; Return value:  Size  Location     Type
  2946 ;;                  1    wreg      void 
  2947 ;; Registers used:
  2948 ;;		wreg
  2949 ;; Tracked objects:
  2950 ;;		On entry : 0/0
  2951 ;;		On exit  : 0/0
  2952 ;;		Unchanged: 0/0
  2953 ;; Data sizes:     COMMON   BANK0   BANK1   BANK2   BANK3   BANK4   BANK5   BANK6
  2954 ;;      Params:         0       2       0       0       0       0       0       0
  2955 ;;      Locals:         0       0       0       0       0       0       0       0
  2956 ;;      Temps:          0       0       0       0       0       0       0       0
  2957 ;;      Totals:         0       2       0       0       0       0       0       0
  2958 ;;Total ram usage:        2 bytes
  2959 ;; Hardware stack levels used: 1
  2960 ;; Hardware stack levels required when called: 6
  2961 ;; This function calls:
  2962 ;;		Nothing
  2963 ;; This function is called by:
  2964 ;;		_I2C_Open
  2965 ;; This function uses a non-reentrant model
  2966 ;;
  2967                           
  2968     01D7                     _I2C_SlaveSetReadIntHandler:	
  2969                           ;psect for function _I2C_SlaveSetReadIntHandler
  2970                           
  2971     01D7                     l1810:	
  2972                           ;incstack = 0
  2973                           ; Regs used in _I2C_SlaveSetReadIntHandler: [wreg]
  2974                           
  2975                           
  2976                           ;mcc_generated_files/i2c_slave.c: 230:     I2C_SlaveRdInterruptHandler = handler;
  2977     01D7  0020               	movlb	0	; select bank0
  2978     01D8  082F               	movf	I2C_SlaveSetReadIntHandler@handler+1,w
  2979     01D9  00AB               	movwf	_I2C_SlaveRdInterruptHandler+1
  2980     01DA  082E               	movf	I2C_SlaveSetReadIntHandler@handler,w
  2981     01DB  00AA               	movwf	_I2C_SlaveRdInterruptHandler
  2982     01DC                     l361:
  2983     01DC  0008               	return
  2984     01DD                     __end_of_I2C_SlaveSetReadIntHandler:
  2985                           
  2986                           	psect	text12
  2987     01DD                     __ptext12:	
  2988 ;; *************** function _I2C_SlaveSetIsrHandler *****************
  2989 ;; Defined at:
  2990 ;;		line 223 in file "mcc_generated_files/i2c_slave.c"
  2991 ;; Parameters:    Size  Location     Type
  2992 ;;  handler         2    0[BANK0 ] PTR FTN()void 
  2993 ;;		 -> I2C_Isr(1), 
  2994 ;; Auto vars:     Size  Location     Type
  2995 ;;		None
  2996 ;; Return value:  Size  Location     Type
  2997 ;;                  1    wreg      void 
  2998 ;; Registers used:
  2999 ;;		wreg
  3000 ;; Tracked objects:
  3001 ;;		On entry : 0/0
  3002 ;;		On exit  : 0/0
  3003 ;;		Unchanged: 0/0
  3004 ;; Data sizes:     COMMON   BANK0   BANK1   BANK2   BANK3   BANK4   BANK5   BANK6
  3005 ;;      Params:         0       2       0       0       0       0       0       0
  3006 ;;      Locals:         0       0       0       0       0       0       0       0
  3007 ;;      Temps:          0       0       0       0       0       0       0       0
  3008 ;;      Totals:         0       2       0       0       0       0       0       0
  3009 ;;Total ram usage:        2 bytes
  3010 ;; Hardware stack levels used: 1
  3011 ;; Hardware stack levels required when called: 6
  3012 ;; This function calls:
  3013 ;;		Nothing
  3014 ;; This function is called by:
  3015 ;;		_I2C_Open
  3016 ;; This function uses a non-reentrant model
  3017 ;;
  3018                           
  3019     01DD                     _I2C_SlaveSetIsrHandler:	
  3020                           ;psect for function _I2C_SlaveSetIsrHandler
  3021                           
  3022     01DD                     l1806:	
  3023                           ;incstack = 0
  3024                           ; Regs used in _I2C_SlaveSetIsrHandler: [wreg]
  3025                           
  3026                           
  3027                           ;mcc_generated_files/i2c_slave.c: 223: void I2C_SlaveSetIsrHandler(i2cInterruptHandler h
      +                          andler);mcc_generated_files/i2c_slave.c: 224: {;mcc_generated_files/i2c_slave.c: 225:   
      +                            MSSP_InterruptHandler = handler;
  3028     01DD  0020               	movlb	0	; select bank0
  3029     01DE  082F               	movf	I2C_SlaveSetIsrHandler@handler+1,w
  3030     01DF  00AD               	movwf	_MSSP_InterruptHandler+1
  3031     01E0  082E               	movf	I2C_SlaveSetIsrHandler@handler,w
  3032     01E1  00AC               	movwf	_MSSP_InterruptHandler
  3033     01E2                     l358:
  3034     01E2  0008               	return
  3035     01E3                     __end_of_I2C_SlaveSetIsrHandler:
  3036                           
  3037                           	psect	text13
  3038     01E3                     __ptext13:	
  3039 ;; *************** function _I2C_SlaveSetBusColIntHandler *****************
  3040 ;; Defined at:
  3041 ;;		line 295 in file "mcc_generated_files/i2c_slave.c"
  3042 ;; Parameters:    Size  Location     Type
  3043 ;;  handler         2    0[BANK0 ] PTR FTN()void 
  3044 ;;		 -> I2C_SlaveDefBusColInterruptHandler(1), 
  3045 ;; Auto vars:     Size  Location     Type
  3046 ;;		None
  3047 ;; Return value:  Size  Location     Type
  3048 ;;                  1    wreg      void 
  3049 ;; Registers used:
  3050 ;;		wreg
  3051 ;; Tracked objects:
  3052 ;;		On entry : 0/0
  3053 ;;		On exit  : 0/0
  3054 ;;		Unchanged: 0/0
  3055 ;; Data sizes:     COMMON   BANK0   BANK1   BANK2   BANK3   BANK4   BANK5   BANK6
  3056 ;;      Params:         0       2       0       0       0       0       0       0
  3057 ;;      Locals:         0       0       0       0       0       0       0       0
  3058 ;;      Temps:          0       0       0       0       0       0       0       0
  3059 ;;      Totals:         0       2       0       0       0       0       0       0
  3060 ;;Total ram usage:        2 bytes
  3061 ;; Hardware stack levels used: 1
  3062 ;; Hardware stack levels required when called: 6
  3063 ;; This function calls:
  3064 ;;		Nothing
  3065 ;; This function is called by:
  3066 ;;		_I2C_Open
  3067 ;; This function uses a non-reentrant model
  3068 ;;
  3069                           
  3070     01E3                     _I2C_SlaveSetBusColIntHandler:	
  3071                           ;psect for function _I2C_SlaveSetBusColIntHandler
  3072                           
  3073     01E3                     l1808:	
  3074                           ;incstack = 0
  3075                           ; Regs used in _I2C_SlaveSetBusColIntHandler: [wreg]
  3076                           
  3077                           
  3078                           ;mcc_generated_files/i2c_slave.c: 296:     I2C_SlaveBusColInterruptHandler = handler;
  3079     01E3  0020               	movlb	0	; select bank0
  3080     01E4  082F               	movf	I2C_SlaveSetBusColIntHandler@handler+1,w
  3081     01E5  00A5               	movwf	_I2C_SlaveBusColInterruptHandler+1
  3082     01E6  082E               	movf	I2C_SlaveSetBusColIntHandler@handler,w
  3083     01E7  00A4               	movwf	_I2C_SlaveBusColInterruptHandler
  3084     01E8                     l401:
  3085     01E8  0008               	return
  3086     01E9                     __end_of_I2C_SlaveSetBusColIntHandler:
  3087                           
  3088                           	psect	text14
  3089     01E9                     __ptext14:	
  3090 ;; *************** function _I2C_SlaveSetAddrIntHandler *****************
  3091 ;; Defined at:
  3092 ;;		line 263 in file "mcc_generated_files/i2c_slave.c"
  3093 ;; Parameters:    Size  Location     Type
  3094 ;;  handler         2    0[BANK0 ] PTR FTN()void 
  3095 ;;		 -> I2C_SlaveDefAddrInterruptHandler(1), AddressIntHandler(1), 
  3096 ;; Auto vars:     Size  Location     Type
  3097 ;;		None
  3098 ;; Return value:  Size  Location     Type
  3099 ;;                  1    wreg      void 
  3100 ;; Registers used:
  3101 ;;		wreg
  3102 ;; Tracked objects:
  3103 ;;		On entry : 0/0
  3104 ;;		On exit  : 0/0
  3105 ;;		Unchanged: 0/0
  3106 ;; Data sizes:     COMMON   BANK0   BANK1   BANK2   BANK3   BANK4   BANK5   BANK6
  3107 ;;      Params:         0       2       0       0       0       0       0       0
  3108 ;;      Locals:         0       0       0       0       0       0       0       0
  3109 ;;      Temps:          0       0       0       0       0       0       0       0
  3110 ;;      Totals:         0       2       0       0       0       0       0       0
  3111 ;;Total ram usage:        2 bytes
  3112 ;; Hardware stack levels used: 1
  3113 ;; Hardware stack levels required when called: 6
  3114 ;; This function calls:
  3115 ;;		Nothing
  3116 ;; This function is called by:
  3117 ;;		_main
  3118 ;;		_I2C_Open
  3119 ;; This function uses a non-reentrant model
  3120 ;;
  3121                           
  3122     01E9                     _I2C_SlaveSetAddrIntHandler:	
  3123                           ;psect for function _I2C_SlaveSetAddrIntHandler
  3124                           
  3125     01E9                     l1788:	
  3126                           ;incstack = 0
  3127                           ; Regs used in _I2C_SlaveSetAddrIntHandler: [wreg]
  3128                           
  3129                           
  3130                           ;mcc_generated_files/i2c_slave.c: 264:     I2C_SlaveAddrInterruptHandler = handler;
  3131     01E9  0020               	movlb	0	; select bank0
  3132     01EA  082F               	movf	I2C_SlaveSetAddrIntHandler@handler+1,w
  3133     01EB  00A7               	movwf	_I2C_SlaveAddrInterruptHandler+1
  3134     01EC  082E               	movf	I2C_SlaveSetAddrIntHandler@handler,w
  3135     01ED  00A6               	movwf	_I2C_SlaveAddrInterruptHandler
  3136     01EE                     l381:
  3137     01EE  0008               	return
  3138     01EF                     __end_of_I2C_SlaveSetAddrIntHandler:
  3139                           
  3140                           	psect	text15
  3141     0156                     __ptext15:	
  3142 ;; *************** function _I2C_SlaveOpen *****************
  3143 ;; Defined at:
  3144 ;;		line 310 in file "mcc_generated_files/i2c_slave.c"
  3145 ;; Parameters:    Size  Location     Type
  3146 ;;		None
  3147 ;; Auto vars:     Size  Location     Type
  3148 ;;		None
  3149 ;; Return value:  Size  Location     Type
  3150 ;;                  1    wreg      _Bool 
  3151 ;; Registers used:
  3152 ;;		wreg, status,2, status,0
  3153 ;; Tracked objects:
  3154 ;;		On entry : 0/0
  3155 ;;		On exit  : 0/0
  3156 ;;		Unchanged: 0/0
  3157 ;; Data sizes:     COMMON   BANK0   BANK1   BANK2   BANK3   BANK4   BANK5   BANK6
  3158 ;;      Params:         0       0       0       0       0       0       0       0
  3159 ;;      Locals:         0       0       0       0       0       0       0       0
  3160 ;;      Temps:          0       1       0       0       0       0       0       0
  3161 ;;      Totals:         0       1       0       0       0       0       0       0
  3162 ;;Total ram usage:        1 bytes
  3163 ;; Hardware stack levels used: 1
  3164 ;; Hardware stack levels required when called: 6
  3165 ;; This function calls:
  3166 ;;		Nothing
  3167 ;; This function is called by:
  3168 ;;		_I2C_Open
  3169 ;; This function uses a non-reentrant model
  3170 ;;
  3171                           
  3172     0156                     _I2C_SlaveOpen:	
  3173                           ;psect for function _I2C_SlaveOpen
  3174                           
  3175     0156                     l1790:	
  3176                           ;incstack = 0
  3177                           ; Regs used in _I2C_SlaveOpen: [wreg+status,2+status,0]
  3178                           
  3179                           
  3180                           ;mcc_generated_files/i2c_slave.c: 312:     if(!SSPCON1bits.SSPEN)
  3181     0156  0024               	movlb	4	; select bank4
  3182     0157  1A95               	btfsc	21,5	;volatile
  3183     0158  295A               	goto	u461
  3184     0159  295B               	goto	u460
  3185     015A                     u461:
  3186     015A  2964               	goto	l412
  3187     015B                     u460:
  3188     015B                     l1792:
  3189                           
  3190                           ;mcc_generated_files/i2c_slave.c: 313:     {;mcc_generated_files/i2c_slave.c: 314:      
      +                             SSPSTAT = 0x00;
  3191     015B  0194               	clrf	20	;volatile
  3192     015C                     l1794:
  3193                           
  3194                           ;mcc_generated_files/i2c_slave.c: 315:         SSPCON1 |= 0x06;
  3195     015C  3006               	movlw	6
  3196     015D  0020               	movlb	0	; select bank0
  3197     015E  00AE               	movwf	??_I2C_SlaveOpen
  3198     015F  082E               	movf	??_I2C_SlaveOpen,w
  3199     0160  0024               	movlb	4	; select bank4
  3200     0161  0495               	iorwf	21,f	;volatile
  3201     0162                     l1796:
  3202                           
  3203                           ;mcc_generated_files/i2c_slave.c: 316:         SSPCON2 = 0x00;
  3204     0162  0196               	clrf	22	;volatile
  3205     0163                     l1798:
  3206                           
  3207                           ;mcc_generated_files/i2c_slave.c: 317:         SSPCON1bits.SSPEN = 1;
  3208     0163  1695               	bsf	21,5	;volatile
  3209     0164                     l412:
  3210     0164  0008               	return
  3211     0165                     __end_of_I2C_SlaveOpen:
  3212                           
  3213                           	psect	text16
  3214     0216                     __ptext16:	
  3215 ;; *************** function _I2C_SlaveEnableIrq *****************
  3216 ;; Defined at:
  3217 ;;		line 341 in file "mcc_generated_files/i2c_slave.c"
  3218 ;; Parameters:    Size  Location     Type
  3219 ;;		None
  3220 ;; Auto vars:     Size  Location     Type
  3221 ;;		None
  3222 ;; Return value:  Size  Location     Type
  3223 ;;                  1    wreg      void 
  3224 ;; Registers used:
  3225 ;;		None
  3226 ;; Tracked objects:
  3227 ;;		On entry : 0/0
  3228 ;;		On exit  : 0/0
  3229 ;;		Unchanged: 0/0
  3230 ;; Data sizes:     COMMON   BANK0   BANK1   BANK2   BANK3   BANK4   BANK5   BANK6
  3231 ;;      Params:         0       0       0       0       0       0       0       0
  3232 ;;      Locals:         0       0       0       0       0       0       0       0
  3233 ;;      Temps:          0       0       0       0       0       0       0       0
  3234 ;;      Totals:         0       0       0       0       0       0       0       0
  3235 ;;Total ram usage:        0 bytes
  3236 ;; Hardware stack levels used: 1
  3237 ;; Hardware stack levels required when called: 6
  3238 ;; This function calls:
  3239 ;;		Nothing
  3240 ;; This function is called by:
  3241 ;;		_I2C_Open
  3242 ;; This function uses a non-reentrant model
  3243 ;;
  3244                           
  3245     0216                     _I2C_SlaveEnableIrq:	
  3246                           ;psect for function _I2C_SlaveEnableIrq
  3247                           
  3248     0216                     l1814:	
  3249                           ;incstack = 0
  3250                           ; Regs used in _I2C_SlaveEnableIrq: []
  3251                           
  3252                           
  3253                           ;mcc_generated_files/i2c_slave.c: 343:     PIE1bits.SSPIE = 1;
  3254     0216  0021               	movlb	1	; select bank1
  3255     0217  1591               	bsf	17,3	;volatile
  3256     0218                     l424:
  3257     0218  0008               	return
  3258     0219                     __end_of_I2C_SlaveEnableIrq:
  3259                           
  3260                           	psect	intentry
  3261     0004                     __pintentry:	
  3262 ;; *************** function _INTERRUPT_InterruptManager *****************
  3263 ;; Defined at:
  3264 ;;		line 52 in file "mcc_generated_files/interrupt_manager.c"
  3265 ;; Parameters:    Size  Location     Type
  3266 ;;		None
  3267 ;; Auto vars:     Size  Location     Type
  3268 ;;		None
  3269 ;; Return value:  Size  Location     Type
  3270 ;;                  1    wreg      void 
  3271 ;; Registers used:
  3272 ;;		wreg, fsr0l, fsr0h, status,2, status,0, pclath, cstack
  3273 ;; Tracked objects:
  3274 ;;		On entry : 0/0
  3275 ;;		On exit  : 0/0
  3276 ;;		Unchanged: 0/0
  3277 ;; Data sizes:     COMMON   BANK0   BANK1   BANK2   BANK3   BANK4   BANK5   BANK6
  3278 ;;      Params:         0       0       0       0       0       0       0       0
  3279 ;;      Locals:         0       0       0       0       0       0       0       0
  3280 ;;      Temps:          0       0       0       0       0       0       0       0
  3281 ;;      Totals:         0       0       0       0       0       0       0       0
  3282 ;;Total ram usage:        0 bytes
  3283 ;; Hardware stack levels used: 1
  3284 ;; Hardware stack levels required when called: 5
  3285 ;; This function calls:
  3286 ;;		NULL
  3287 ;;		_I2C_Isr
  3288 ;; This function is called by:
  3289 ;;		Interrupt level 1
  3290 ;; This function uses a non-reentrant model
  3291 ;;
  3292                           
  3293     0004                     _INTERRUPT_InterruptManager:
  3294                           
  3295                           ;incstack = 0
  3296     0004  147E               	bsf	int$flags,0	;set compiler interrupt flag (level 1)
  3297                           
  3298                           ; Regs used in _INTERRUPT_InterruptManager: [wreg-fsr0h+status,2+status,0+pclath+cstack]
  3299     0005  3180               	pagesel	$
  3300     0006                     i1l1722:
  3301                           
  3302                           ;mcc_generated_files/interrupt_manager.c: 55:     if(INTCONbits.PEIE == 1)
  3303     0006  1F0B               	btfss	11,6	;volatile
  3304     0007  2809               	goto	u41_21
  3305     0008  280A               	goto	u41_20
  3306     0009                     u41_21:
  3307     0009  2825               	goto	i1l502
  3308     000A                     u41_20:
  3309     000A                     i1l1724:
  3310                           
  3311                           ;mcc_generated_files/interrupt_manager.c: 56:     {;mcc_generated_files/interrupt_manage
      +                          r.c: 57:         if(PIE2bits.BCLIE == 1 && PIR2bits.BCLIF == 1)
  3312     000A  0021               	movlb	1	; select bank1
  3313     000B  1D92               	btfss	18,3	;volatile
  3314     000C  280E               	goto	u42_21
  3315     000D  280F               	goto	u42_20
  3316     000E                     u42_21:
  3317     000E  281A               	goto	i1l497
  3318     000F                     u42_20:
  3319     000F                     i1l1726:
  3320     000F  0020               	movlb	0	; select bank0
  3321     0010  1D92               	btfss	18,3	;volatile
  3322     0011  2813               	goto	u43_21
  3323     0012  2814               	goto	u43_20
  3324     0013                     u43_21:
  3325     0013  281A               	goto	i1l497
  3326     0014                     u43_20:
  3327     0014                     i1l1728:
  3328                           
  3329                           ;mcc_generated_files/interrupt_manager.c: 58:         {;mcc_generated_files/interrupt_ma
      +                          nager.c: 59:             MSSP_InterruptHandler();
  3330     0014  082D               	movf	_MSSP_InterruptHandler+1,w
  3331     0015  008A               	movwf	10
  3332     0016  082C               	movf	_MSSP_InterruptHandler,w
  3333     0017  000A               	callw
  3334     0018  3180               	pagesel	$
  3335                           
  3336                           ;mcc_generated_files/interrupt_manager.c: 60:         }
  3337     0019  2825               	goto	i1l502
  3338     001A                     i1l497:	
  3339                           ;mcc_generated_files/interrupt_manager.c: 61:         else if(PIE1bits.SSPIE == 1 && PIR
      +                          1bits.SSPIF == 1)
  3340                           
  3341     001A  0021               	movlb	1	; select bank1
  3342     001B  1D91               	btfss	17,3	;volatile
  3343     001C  281E               	goto	u44_21
  3344     001D  281F               	goto	u44_20
  3345     001E                     u44_21:
  3346     001E  2825               	goto	i1l498
  3347     001F                     u44_20:
  3348     001F                     i1l1730:
  3349     001F  0020               	movlb	0	; select bank0
  3350     0020  1D91               	btfss	17,3	;volatile
  3351     0021  2823               	goto	u45_21
  3352     0022  2824               	goto	u45_20
  3353     0023                     u45_21:
  3354     0023  2825               	goto	i1l498
  3355     0024                     u45_20:
  3356     0024  2814               	goto	i1l1728
  3357     0025                     i1l498:
  3358     0025                     i1l502:	
  3359                           ;mcc_generated_files/interrupt_manager.c: 69:     }
  3360                           
  3361     0025  107E               	bcf	int$flags,0	;clear compiler interrupt flag (level 1)
  3362     0026  0009               	retfie
  3363     0027                     __end_of_INTERRUPT_InterruptManager:
  3364                           
  3365                           	psect	text18
  3366     003D                     __ptext18:	
  3367 ;; *************** function _I2C_Isr *****************
  3368 ;; Defined at:
  3369 ;;		line 165 in file "mcc_generated_files/i2c_slave.c"
  3370 ;; Parameters:    Size  Location     Type
  3371 ;;		None
  3372 ;; Auto vars:     Size  Location     Type
  3373 ;;		None
  3374 ;; Return value:  Size  Location     Type
  3375 ;;                  1    wreg      void 
  3376 ;; Registers used:
  3377 ;;		wreg, fsr0l, fsr0h, status,2, status,0, pclath, cstack
  3378 ;; Tracked objects:
  3379 ;;		On entry : 0/0
  3380 ;;		On exit  : 0/0
  3381 ;;		Unchanged: 0/0
  3382 ;; Data sizes:     COMMON   BANK0   BANK1   BANK2   BANK3   BANK4   BANK5   BANK6
  3383 ;;      Params:         0       0       0       0       0       0       0       0
  3384 ;;      Locals:         0       0       0       0       0       0       0       0
  3385 ;;      Temps:          2       0       0       0       0       0       0       0
  3386 ;;      Totals:         2       0       0       0       0       0       0       0
  3387 ;;Total ram usage:        2 bytes
  3388 ;; Hardware stack levels used: 1
  3389 ;; Hardware stack levels required when called: 4
  3390 ;; This function calls:
  3391 ;;		_I2C_SlaveAddrCallBack
  3392 ;;		_I2C_SlaveClearIrq
  3393 ;;		_I2C_SlaveIsAddr
  3394 ;;		_I2C_SlaveIsRead
  3395 ;;		_I2C_SlaveIsRxBufFull
  3396 ;;		_I2C_SlaveIsTxBufEmpty
  3397 ;;		_I2C_SlaveRdCallBack
  3398 ;;		_I2C_SlaveReleaseClock
  3399 ;;		_I2C_SlaveWrCallBack
  3400 ;; This function is called by:
  3401 ;;		_I2C_Open
  3402 ;;		_INTERRUPT_InterruptManager
  3403 ;; This function uses a non-reentrant model
  3404 ;;
  3405                           
  3406     003D                     _I2C_Isr:	
  3407                           ;psect for function _I2C_Isr
  3408                           
  3409     003D                     i1l1630:	
  3410                           ;incstack = 0
  3411                           ; Regs used in _I2C_Isr: [wreg-fsr0h+status,2+status,0+pclath+cstack]
  3412                           
  3413                           
  3414                           ;mcc_generated_files/i2c_slave.c: 167:     I2C_SlaveClearIrq();
  3415     003D  3182  221C  3180   	fcall	_I2C_SlaveClearIrq
  3416     0040                     i1l1632:
  3417                           
  3418                           ;mcc_generated_files/i2c_slave.c: 169:     if(I2C_SlaveIsAddr())
  3419     0040  3181  21B2  3180   	fcall	_I2C_SlaveIsAddr
  3420     0043  3A00               	xorlw	0
  3421     0044  1903               	skipnz
  3422     0045  2847               	goto	u31_21
  3423     0046  2848               	goto	u31_20
  3424     0047                     u31_21:
  3425     0047  2856               	goto	i1l1640
  3426     0048                     u31_20:
  3427     0048                     i1l1634:
  3428                           
  3429                           ;mcc_generated_files/i2c_slave.c: 170:     {;mcc_generated_files/i2c_slave.c: 171:      
      +                             if(I2C_SlaveIsRead())
  3430     0048  3182  2204  3180   	fcall	_I2C_SlaveIsRead
  3431     004B  3A00               	xorlw	0
  3432     004C  1903               	skipnz
  3433     004D  284F               	goto	u32_21
  3434     004E  2850               	goto	u32_20
  3435     004F                     u32_21:
  3436     004F  2853               	goto	i1l1638
  3437     0050                     u32_20:
  3438     0050                     i1l1636:
  3439                           
  3440                           ;mcc_generated_files/i2c_slave.c: 172:         {;mcc_generated_files/i2c_slave.c: 173:  
      +                                     i2cSlaveState = I2C_ADDR_TX;
  3441     0050  3001               	movlw	1
  3442     0051  00F0               	movwf	_i2cSlaveState	;volatile
  3443                           
  3444                           ;mcc_generated_files/i2c_slave.c: 174:         }
  3445     0052  288C               	goto	i1l1664
  3446     0053                     i1l1638:
  3447                           
  3448                           ;mcc_generated_files/i2c_slave.c: 176:         {;mcc_generated_files/i2c_slave.c: 177:  
      +                                     i2cSlaveState = I2C_ADDR_RX;
  3449     0053  3002               	movlw	2
  3450     0054  00F0               	movwf	_i2cSlaveState	;volatile
  3451     0055  288C               	goto	i1l1664
  3452     0056                     i1l1640:
  3453                           
  3454                           ;mcc_generated_files/i2c_slave.c: 181:     {;mcc_generated_files/i2c_slave.c: 182:      
      +                             if(I2C_SlaveIsRead())
  3455     0056  3182  2204  3180   	fcall	_I2C_SlaveIsRead
  3456     0059  3A00               	xorlw	0
  3457     005A  1903               	skipnz
  3458     005B  285D               	goto	u33_21
  3459     005C  285E               	goto	u33_20
  3460     005D                     u33_21:
  3461     005D  2861               	goto	i1l1644
  3462     005E                     u33_20:
  3463     005E                     i1l1642:
  3464                           
  3465                           ;mcc_generated_files/i2c_slave.c: 183:         {;mcc_generated_files/i2c_slave.c: 184:  
      +                                     i2cSlaveState = I2C_DATA_TX;
  3466     005E  3003               	movlw	3
  3467     005F  00F0               	movwf	_i2cSlaveState	;volatile
  3468                           
  3469                           ;mcc_generated_files/i2c_slave.c: 185:         }
  3470     0060  288C               	goto	i1l1664
  3471     0061                     i1l1644:
  3472                           
  3473                           ;mcc_generated_files/i2c_slave.c: 187:         {;mcc_generated_files/i2c_slave.c: 188:  
      +                                     i2cSlaveState = I2C_DATA_RX;
  3474     0061  3004               	movlw	4
  3475     0062  00F0               	movwf	_i2cSlaveState	;volatile
  3476     0063  288C               	goto	i1l1664
  3477     0064                     i1l1646:
  3478                           
  3479                           ;mcc_generated_files/i2c_slave.c: 195:             I2C_SlaveAddrCallBack();
  3480     0064  3181  218C  3180   	fcall	_I2C_SlaveAddrCallBack
  3481     0067                     i1l1648:
  3482                           
  3483                           ;mcc_generated_files/i2c_slave.c: 196:             if(I2C_SlaveIsTxBufEmpty())
  3484     0067  3181  21AB  3180   	fcall	_I2C_SlaveIsTxBufEmpty
  3485     006A  3A00               	xorlw	0
  3486     006B  1903               	skipnz
  3487     006C  286E               	goto	u34_21
  3488     006D  286F               	goto	u34_20
  3489     006E                     u34_21:
  3490     006E  28A2               	goto	i1l1666
  3491     006F                     u34_20:
  3492     006F                     i1l1650:
  3493                           
  3494                           ;mcc_generated_files/i2c_slave.c: 197:             {;mcc_generated_files/i2c_slave.c: 19
      +                          8:                 I2C_SlaveWrCallBack();
  3495     006F  3181  2172  3180   	fcall	_I2C_SlaveWrCallBack
  3496     0072  28A2               	goto	i1l1666
  3497     0073                     i1l1652:
  3498                           
  3499                           ;mcc_generated_files/i2c_slave.c: 202:             I2C_SlaveAddrCallBack();
  3500     0073  3181  218C  3180   	fcall	_I2C_SlaveAddrCallBack
  3501                           
  3502                           ;mcc_generated_files/i2c_slave.c: 203:             break;
  3503     0076  28A2               	goto	i1l1666
  3504     0077                     i1l1654:
  3505                           
  3506                           ;mcc_generated_files/i2c_slave.c: 205:             if(I2C_SlaveIsTxBufEmpty())
  3507     0077  3181  21AB  3180   	fcall	_I2C_SlaveIsTxBufEmpty
  3508     007A  3A00               	xorlw	0
  3509     007B  1903               	skipnz
  3510     007C  287E               	goto	u35_21
  3511     007D  287F               	goto	u35_20
  3512     007E                     u35_21:
  3513     007E  28A2               	goto	i1l1666
  3514     007F                     u35_20:
  3515     007F  286F               	goto	i1l1650
  3516     0080                     i1l1658:
  3517                           
  3518                           ;mcc_generated_files/i2c_slave.c: 211:             if(I2C_SlaveIsRxBufFull())
  3519     0080  3182  2212  3180   	fcall	_I2C_SlaveIsRxBufFull
  3520     0083  3A00               	xorlw	0
  3521     0084  1903               	skipnz
  3522     0085  2887               	goto	u36_21
  3523     0086  2888               	goto	u36_20
  3524     0087                     u36_21:
  3525     0087  28A2               	goto	i1l1666
  3526     0088                     u36_20:
  3527     0088                     i1l1660:
  3528                           
  3529                           ;mcc_generated_files/i2c_slave.c: 212:             {;mcc_generated_files/i2c_slave.c: 21
      +                          3:                 I2C_SlaveRdCallBack();
  3530     0088  3181  217F  3180   	fcall	_I2C_SlaveRdCallBack
  3531     008B  28A2               	goto	i1l1666
  3532     008C                     i1l1664:
  3533     008C  0870               	movf	_i2cSlaveState,w	;volatile
  3534     008D  00FA               	movwf	??_I2C_Isr
  3535     008E  01FB               	clrf	??_I2C_Isr+1
  3536                           
  3537                           ; Switch on 2 bytes has been partitioned into a top level switch of size 1, and 1 sub-sw
      +                          itches
  3538                           ; Switch size 1, requested type "simple"
  3539                           ; Number of cases is 1, Range of values is 0 to 0
  3540                           ; switch strategies available:
  3541                           ; Name         Instructions Cycles
  3542                           ; simple_byte            4     3 (average)
  3543                           ; direct_byte            8     6 (fixed)
  3544                           ; jumptable            260     6 (fixed)
  3545                           ;	Chosen strategy is simple_byte
  3546     008F  087B               	movf	??_I2C_Isr+1,w
  3547     0090  3A00               	xorlw	0	; case 0
  3548     0091  1903               	skipnz
  3549     0092  2894               	goto	i1l1878
  3550     0093  28A2               	goto	i1l1666
  3551     0094                     i1l1878:
  3552                           
  3553                           ; Switch size 1, requested type "simple"
  3554                           ; Number of cases is 4, Range of values is 1 to 4
  3555                           ; switch strategies available:
  3556                           ; Name         Instructions Cycles
  3557                           ; simple_byte           13     7 (average)
  3558                           ; direct_byte           17     9 (fixed)
  3559                           ; jumptable            263     9 (fixed)
  3560                           ;	Chosen strategy is simple_byte
  3561     0094  087A               	movf	??_I2C_Isr,w
  3562     0095  3A01               	xorlw	1	; case 1
  3563     0096  1903               	skipnz
  3564     0097  2864               	goto	i1l1646
  3565     0098  3A03               	xorlw	3	; case 2
  3566     0099  1903               	skipnz
  3567     009A  2873               	goto	i1l1652
  3568     009B  3A01               	xorlw	1	; case 3
  3569     009C  1903               	skipnz
  3570     009D  2877               	goto	i1l1654
  3571     009E  3A07               	xorlw	7	; case 4
  3572     009F  1903               	skipnz
  3573     00A0  2880               	goto	i1l1658
  3574     00A1  28A2               	goto	i1l1666
  3575     00A2                     i1l1666:
  3576                           
  3577                           ;mcc_generated_files/i2c_slave.c: 219:     I2C_SlaveReleaseClock();
  3578     00A2  3182  2219  3180   	fcall	_I2C_SlaveReleaseClock
  3579     00A5                     i1l355:
  3580     00A5  0008               	return
  3581     00A6                     __end_of_I2C_Isr:
  3582                           
  3583                           	psect	text19
  3584     0172                     __ptext19:	
  3585 ;; *************** function _I2C_SlaveWrCallBack *****************
  3586 ;; Defined at:
  3587 ;;		line 250 in file "mcc_generated_files/i2c_slave.c"
  3588 ;; Parameters:    Size  Location     Type
  3589 ;;		None
  3590 ;; Auto vars:     Size  Location     Type
  3591 ;;		None
  3592 ;; Return value:  Size  Location     Type
  3593 ;;                  1    wreg      void 
  3594 ;; Registers used:
  3595 ;;		wreg, status,2, status,0, pclath, cstack
  3596 ;; Tracked objects:
  3597 ;;		On entry : 0/0
  3598 ;;		On exit  : 0/0
  3599 ;;		Unchanged: 0/0
  3600 ;; Data sizes:     COMMON   BANK0   BANK1   BANK2   BANK3   BANK4   BANK5   BANK6
  3601 ;;      Params:         0       0       0       0       0       0       0       0
  3602 ;;      Locals:         0       0       0       0       0       0       0       0
  3603 ;;      Temps:          0       0       0       0       0       0       0       0
  3604 ;;      Totals:         0       0       0       0       0       0       0       0
  3605 ;;Total ram usage:        0 bytes
  3606 ;; Hardware stack levels used: 1
  3607 ;; Hardware stack levels required when called: 3
  3608 ;; This function calls:
  3609 ;;		NULL
  3610 ;;		_I2C_SlaveDefWrInterruptHandler
  3611 ;;		_ReadIntHandler
  3612 ;; This function is called by:
  3613 ;;		_I2C_Isr
  3614 ;; This function uses a non-reentrant model
  3615 ;;
  3616                           
  3617     0172                     _I2C_SlaveWrCallBack:	
  3618                           ;psect for function _I2C_SlaveWrCallBack
  3619                           
  3620     0172                     i1l1612:	
  3621                           ;incstack = 0
  3622                           ; Regs used in _I2C_SlaveWrCallBack: [wreg+status,2+status,0+pclath+cstack]
  3623                           
  3624                           
  3625                           ;mcc_generated_files/i2c_slave.c: 252:     if (I2C_SlaveWrInterruptHandler)
  3626     0172  0020               	movlb	0	; select bank0
  3627     0173  0828               	movf	_I2C_SlaveWrInterruptHandler,w
  3628     0174  0429               	iorwf	_I2C_SlaveWrInterruptHandler+1,w
  3629     0175  1903               	btfsc	3,2
  3630     0176  2978               	goto	u29_21
  3631     0177  2979               	goto	u29_20
  3632     0178                     u29_21:
  3633     0178  297E               	goto	i1l375
  3634     0179                     u29_20:
  3635     0179                     i1l1614:
  3636                           
  3637                           ;mcc_generated_files/i2c_slave.c: 253:     {;mcc_generated_files/i2c_slave.c: 254:      
      +                             I2C_SlaveWrInterruptHandler();
  3638     0179  0829               	movf	_I2C_SlaveWrInterruptHandler+1,w
  3639     017A  008A               	movwf	10
  3640     017B  0828               	movf	_I2C_SlaveWrInterruptHandler,w
  3641     017C  000A               	callw
  3642     017D  3181               	pagesel	$
  3643     017E                     i1l375:
  3644     017E  0008               	return
  3645     017F                     __end_of_I2C_SlaveWrCallBack:
  3646                           
  3647                           	psect	text20
  3648     01F5                     __ptext20:	
  3649 ;; *************** function _I2C_SlaveDefWrInterruptHandler *****************
  3650 ;; Defined at:
  3651 ;;		line 258 in file "mcc_generated_files/i2c_slave.c"
  3652 ;; Parameters:    Size  Location     Type
  3653 ;;		None
  3654 ;; Auto vars:     Size  Location     Type
  3655 ;;		None
  3656 ;; Return value:  Size  Location     Type
  3657 ;;                  1    wreg      void 
  3658 ;; Registers used:
  3659 ;;		wreg, status,2, status,0, pclath, cstack
  3660 ;; Tracked objects:
  3661 ;;		On entry : 0/0
  3662 ;;		On exit  : 0/0
  3663 ;;		Unchanged: 0/0
  3664 ;; Data sizes:     COMMON   BANK0   BANK1   BANK2   BANK3   BANK4   BANK5   BANK6
  3665 ;;      Params:         0       0       0       0       0       0       0       0
  3666 ;;      Locals:         0       0       0       0       0       0       0       0
  3667 ;;      Temps:          0       0       0       0       0       0       0       0
  3668 ;;      Totals:         0       0       0       0       0       0       0       0
  3669 ;;Total ram usage:        0 bytes
  3670 ;; Hardware stack levels used: 1
  3671 ;; Hardware stack levels required when called: 1
  3672 ;; This function calls:
  3673 ;;		_I2C_SlaveSendTxData
  3674 ;; This function is called by:
  3675 ;;		_I2C_Open
  3676 ;;		_I2C_SlaveWrCallBack
  3677 ;; This function uses a non-reentrant model
  3678 ;;
  3679                           
  3680     01F5                     _I2C_SlaveDefWrInterruptHandler:	
  3681                           ;psect for function _I2C_SlaveDefWrInterruptHandler
  3682                           
  3683     01F5                     i1l1578:	
  3684                           ;incstack = 0
  3685                           ; Regs used in _I2C_SlaveDefWrInterruptHandler: [wreg+status,2+status,0+pclath+cstack]
  3686                           
  3687                           
  3688                           ;mcc_generated_files/i2c_slave.c: 259:     I2C_SlaveSendTxData(i2cWrData);
  3689     01F5  0873               	movf	_i2cWrData,w	;volatile
  3690     01F6  3181  21FA  3181   	fcall	_I2C_SlaveSendTxData
  3691     01F9                     i1l378:
  3692     01F9  0008               	return
  3693     01FA                     __end_of_I2C_SlaveDefWrInterruptHandler:
  3694                           
  3695                           	psect	text21
  3696     0144                     __ptext21:	
  3697 ;; *************** function _ReadIntHandler *****************
  3698 ;; Defined at:
  3699 ;;		line 11 in file "main.c"
  3700 ;; Parameters:    Size  Location     Type
  3701 ;;		None
  3702 ;; Auto vars:     Size  Location     Type
  3703 ;;		None
  3704 ;; Return value:  Size  Location     Type
  3705 ;;                  1    wreg      void 
  3706 ;; Registers used:
  3707 ;;		wreg, status,2, status,0, pclath, cstack
  3708 ;; Tracked objects:
  3709 ;;		On entry : 0/0
  3710 ;;		On exit  : 0/0
  3711 ;;		Unchanged: 0/0
  3712 ;; Data sizes:     COMMON   BANK0   BANK1   BANK2   BANK3   BANK4   BANK5   BANK6
  3713 ;;      Params:         0       0       0       0       0       0       0       0
  3714 ;;      Locals:         0       0       0       0       0       0       0       0
  3715 ;;      Temps:          0       0       0       0       0       0       0       0
  3716 ;;      Totals:         0       0       0       0       0       0       0       0
  3717 ;;Total ram usage:        0 bytes
  3718 ;; Hardware stack levels used: 1
  3719 ;; Hardware stack levels required when called: 2
  3720 ;; This function calls:
  3721 ;;		_I2C_Write
  3722 ;; This function is called by:
  3723 ;;		_main
  3724 ;;		_I2C_SlaveWrCallBack
  3725 ;; This function uses a non-reentrant model
  3726 ;;
  3727                           
  3728     0144                     _ReadIntHandler:	
  3729                           ;psect for function _ReadIntHandler
  3730                           
  3731     0144                     i1l1564:	
  3732                           ;incstack = 0
  3733                           ; Regs used in _ReadIntHandler: [wreg+status,2+status,0+pclath+cstack]
  3734                           
  3735                           
  3736                           ;main.c: 12:     if (read_state == 0) {
  3737     0144  0876               	movf	_read_state,w	;volatile
  3738     0145  1D03               	btfss	3,2
  3739     0146  2948               	goto	u27_21
  3740     0147  2949               	goto	u27_20
  3741     0148                     u27_21:
  3742     0148  2950               	goto	i1l1570
  3743     0149                     u27_20:
  3744     0149                     i1l1566:
  3745                           
  3746                           ;main.c: 13:         I2C_Write(datl);
  3747     0149  0875               	movf	_datl,w	;volatile
  3748     014A  3181  21EF  3181   	fcall	_I2C_Write
  3749     014D                     i1l1568:
  3750                           
  3751                           ;main.c: 14:         read_state = 1;
  3752     014D  3001               	movlw	1
  3753     014E  00F6               	movwf	_read_state	;volatile
  3754                           
  3755                           ;main.c: 15:     } else {
  3756     014F  2955               	goto	i1l130
  3757     0150                     i1l1570:
  3758                           
  3759                           ;main.c: 16:         I2C_Write(dath);
  3760     0150  0874               	movf	_dath,w	;volatile
  3761     0151  3181  21EF  3181   	fcall	_I2C_Write
  3762     0154                     i1l1572:
  3763                           
  3764                           ;main.c: 17:         read_state = 0;
  3765     0154  01F6               	clrf	_read_state	;volatile
  3766     0155                     i1l130:
  3767     0155  0008               	return
  3768     0156                     __end_of_ReadIntHandler:
  3769                           
  3770                           	psect	text22
  3771     01EF                     __ptext22:	
  3772 ;; *************** function _I2C_Write *****************
  3773 ;; Defined at:
  3774 ;;		line 140 in file "mcc_generated_files/i2c_slave.c"
  3775 ;; Parameters:    Size  Location     Type
  3776 ;;  data            1    wreg     unsigned char 
  3777 ;; Auto vars:     Size  Location     Type
  3778 ;;  data            1    1[COMMON] unsigned char 
  3779 ;; Return value:  Size  Location     Type
  3780 ;;                  1    wreg      void 
  3781 ;; Registers used:
  3782 ;;		wreg, status,2, status,0, pclath, cstack
  3783 ;; Tracked objects:
  3784 ;;		On entry : 0/0
  3785 ;;		On exit  : 0/0
  3786 ;;		Unchanged: 0/0
  3787 ;; Data sizes:     COMMON   BANK0   BANK1   BANK2   BANK3   BANK4   BANK5   BANK6
  3788 ;;      Params:         0       0       0       0       0       0       0       0
  3789 ;;      Locals:         1       0       0       0       0       0       0       0
  3790 ;;      Temps:          0       0       0       0       0       0       0       0
  3791 ;;      Totals:         1       0       0       0       0       0       0       0
  3792 ;;Total ram usage:        1 bytes
  3793 ;; Hardware stack levels used: 1
  3794 ;; Hardware stack levels required when called: 1
  3795 ;; This function calls:
  3796 ;;		_I2C_SlaveSendTxData
  3797 ;; This function is called by:
  3798 ;;		_ReadIntHandler
  3799 ;; This function uses a non-reentrant model
  3800 ;;
  3801                           
  3802     01EF                     _I2C_Write:	
  3803                           ;psect for function _I2C_Write
  3804                           
  3805                           
  3806                           ;incstack = 0
  3807                           ; Regs used in _I2C_Write: [wreg+status,2+status,0+pclath+cstack]
  3808                           ;I2C_Write@data stored from wreg
  3809     01EF  00F9               	movwf	I2C_Write@data
  3810     01F0                     i1l1558:
  3811                           
  3812                           ;mcc_generated_files/i2c_slave.c: 140: void I2C_Write(uint8_t data);mcc_generated_files/
      +                          i2c_slave.c: 141: {;mcc_generated_files/i2c_slave.c: 142:     I2C_SlaveSendTxData(data);
  3813     01F0  0879               	movf	I2C_Write@data,w
  3814     01F1  3181  21FA  3181   	fcall	_I2C_SlaveSendTxData
  3815     01F4                     i1l324:
  3816     01F4  0008               	return
  3817     01F5                     __end_of_I2C_Write:
  3818                           
  3819                           	psect	text23
  3820     01FA                     __ptext23:	
  3821 ;; *************** function _I2C_SlaveSendTxData *****************
  3822 ;; Defined at:
  3823 ;;		line 391 in file "mcc_generated_files/i2c_slave.c"
  3824 ;; Parameters:    Size  Location     Type
  3825 ;;  data            1    wreg     unsigned char 
  3826 ;; Auto vars:     Size  Location     Type
  3827 ;;  data            1    0[COMMON] unsigned char 
  3828 ;; Return value:  Size  Location     Type
  3829 ;;                  1    wreg      void 
  3830 ;; Registers used:
  3831 ;;		wreg
  3832 ;; Tracked objects:
  3833 ;;		On entry : 0/0
  3834 ;;		On exit  : 0/0
  3835 ;;		Unchanged: 0/0
  3836 ;; Data sizes:     COMMON   BANK0   BANK1   BANK2   BANK3   BANK4   BANK5   BANK6
  3837 ;;      Params:         0       0       0       0       0       0       0       0
  3838 ;;      Locals:         1       0       0       0       0       0       0       0
  3839 ;;      Temps:          0       0       0       0       0       0       0       0
  3840 ;;      Totals:         1       0       0       0       0       0       0       0
  3841 ;;Total ram usage:        1 bytes
  3842 ;; Hardware stack levels used: 1
  3843 ;; This function calls:
  3844 ;;		Nothing
  3845 ;; This function is called by:
  3846 ;;		_I2C_Write
  3847 ;;		_I2C_SlaveDefWrInterruptHandler
  3848 ;; This function uses a non-reentrant model
  3849 ;;
  3850                           
  3851     01FA                     _I2C_SlaveSendTxData:	
  3852                           ;psect for function _I2C_SlaveSendTxData
  3853                           
  3854                           
  3855                           ;incstack = 0
  3856                           ; Regs used in _I2C_SlaveSendTxData: [wreg]
  3857                           ;I2C_SlaveSendTxData@data stored from wreg
  3858     01FA  00F8               	movwf	I2C_SlaveSendTxData@data
  3859     01FB                     i1l1556:
  3860                           
  3861                           ;mcc_generated_files/i2c_slave.c: 391: static __attribute__((inline)) void I2C_SlaveSend
      +                          TxData(uint8_t data);mcc_generated_files/i2c_slave.c: 392: {;mcc_generated_files/i2c_sla
      +                          ve.c: 393:     SSPBUF = data;
  3862     01FB  0878               	movf	I2C_SlaveSendTxData@data,w
  3863     01FC  0024               	movlb	4	; select bank4
  3864     01FD  0091               	movwf	17	;volatile
  3865     01FE                     i1l454:
  3866     01FE  0008               	return
  3867     01FF                     __end_of_I2C_SlaveSendTxData:
  3868                           
  3869                           	psect	text24
  3870     0219                     __ptext24:	
  3871 ;; *************** function _I2C_SlaveReleaseClock *****************
  3872 ;; Defined at:
  3873 ;;		line 361 in file "mcc_generated_files/i2c_slave.c"
  3874 ;; Parameters:    Size  Location     Type
  3875 ;;		None
  3876 ;; Auto vars:     Size  Location     Type
  3877 ;;		None
  3878 ;; Return value:  Size  Location     Type
  3879 ;;                  1    wreg      void 
  3880 ;; Registers used:
  3881 ;;		None
  3882 ;; Tracked objects:
  3883 ;;		On entry : 0/0
  3884 ;;		On exit  : 0/0
  3885 ;;		Unchanged: 0/0
  3886 ;; Data sizes:     COMMON   BANK0   BANK1   BANK2   BANK3   BANK4   BANK5   BANK6
  3887 ;;      Params:         0       0       0       0       0       0       0       0
  3888 ;;      Locals:         0       0       0       0       0       0       0       0
  3889 ;;      Temps:          0       0       0       0       0       0       0       0
  3890 ;;      Totals:         0       0       0       0       0       0       0       0
  3891 ;;Total ram usage:        0 bytes
  3892 ;; Hardware stack levels used: 1
  3893 ;; This function calls:
  3894 ;;		Nothing
  3895 ;; This function is called by:
  3896 ;;		_I2C_Isr
  3897 ;; This function uses a non-reentrant model
  3898 ;;
  3899                           
  3900     0219                     _I2C_SlaveReleaseClock:	
  3901                           ;psect for function _I2C_SlaveReleaseClock
  3902                           
  3903     0219                     i1l1624:	
  3904                           ;incstack = 0
  3905                           ; Regs used in _I2C_SlaveReleaseClock: []
  3906                           
  3907                           
  3908                           ;mcc_generated_files/i2c_slave.c: 363:     SSPCON1bits.CKP = 1;
  3909     0219  0024               	movlb	4	; select bank4
  3910     021A  1615               	bsf	21,4	;volatile
  3911     021B                     i1l436:
  3912     021B  0008               	return
  3913     021C                     __end_of_I2C_SlaveReleaseClock:
  3914                           
  3915                           	psect	text25
  3916     017F                     __ptext25:	
  3917 ;; *************** function _I2C_SlaveRdCallBack *****************
  3918 ;; Defined at:
  3919 ;;		line 233 in file "mcc_generated_files/i2c_slave.c"
  3920 ;; Parameters:    Size  Location     Type
  3921 ;;		None
  3922 ;; Auto vars:     Size  Location     Type
  3923 ;;		None
  3924 ;; Return value:  Size  Location     Type
  3925 ;;                  1    wreg      void 
  3926 ;; Registers used:
  3927 ;;		wreg, status,2, status,0, pclath, cstack
  3928 ;; Tracked objects:
  3929 ;;		On entry : 0/0
  3930 ;;		On exit  : 0/0
  3931 ;;		Unchanged: 0/0
  3932 ;; Data sizes:     COMMON   BANK0   BANK1   BANK2   BANK3   BANK4   BANK5   BANK6
  3933 ;;      Params:         0       0       0       0       0       0       0       0
  3934 ;;      Locals:         0       0       0       0       0       0       0       0
  3935 ;;      Temps:          0       0       0       0       0       0       0       0
  3936 ;;      Totals:         0       0       0       0       0       0       0       0
  3937 ;;Total ram usage:        0 bytes
  3938 ;; Hardware stack levels used: 1
  3939 ;; Hardware stack levels required when called: 2
  3940 ;; This function calls:
  3941 ;;		NULL
  3942 ;;		_I2C_SlaveDefRdInterruptHandler
  3943 ;; This function is called by:
  3944 ;;		_I2C_Isr
  3945 ;; This function uses a non-reentrant model
  3946 ;;
  3947                           
  3948     017F                     _I2C_SlaveRdCallBack:	
  3949                           ;psect for function _I2C_SlaveRdCallBack
  3950                           
  3951     017F                     i1l1620:	
  3952                           ;incstack = 0
  3953                           ; Regs used in _I2C_SlaveRdCallBack: [wreg+status,2+status,0+pclath+cstack]
  3954                           
  3955                           
  3956                           ;mcc_generated_files/i2c_slave.c: 235:     if (I2C_SlaveRdInterruptHandler)
  3957     017F  0020               	movlb	0	; select bank0
  3958     0180  082A               	movf	_I2C_SlaveRdInterruptHandler,w
  3959     0181  042B               	iorwf	_I2C_SlaveRdInterruptHandler+1,w
  3960     0182  1903               	btfsc	3,2
  3961     0183  2985               	goto	u30_21
  3962     0184  2986               	goto	u30_20
  3963     0185                     u30_21:
  3964     0185  298B               	goto	i1l365
  3965     0186                     u30_20:
  3966     0186                     i1l1622:
  3967                           
  3968                           ;mcc_generated_files/i2c_slave.c: 236:     {;mcc_generated_files/i2c_slave.c: 237:      
      +                             I2C_SlaveRdInterruptHandler();
  3969     0186  082B               	movf	_I2C_SlaveRdInterruptHandler+1,w
  3970     0187  008A               	movwf	10
  3971     0188  082A               	movf	_I2C_SlaveRdInterruptHandler,w
  3972     0189  000A               	callw
  3973     018A  3181               	pagesel	$
  3974     018B                     i1l365:
  3975     018B  0008               	return
  3976     018C                     __end_of_I2C_SlaveRdCallBack:
  3977                           
  3978                           	psect	text26
  3979     01FF                     __ptext26:	
  3980 ;; *************** function _I2C_SlaveDefRdInterruptHandler *****************
  3981 ;; Defined at:
  3982 ;;		line 241 in file "mcc_generated_files/i2c_slave.c"
  3983 ;; Parameters:    Size  Location     Type
  3984 ;;		None
  3985 ;; Auto vars:     Size  Location     Type
  3986 ;;		None
  3987 ;; Return value:  Size  Location     Type
  3988 ;;                  1    wreg      void 
  3989 ;; Registers used:
  3990 ;;		wreg, pclath, cstack
  3991 ;; Tracked objects:
  3992 ;;		On entry : 0/0
  3993 ;;		On exit  : 0/0
  3994 ;;		Unchanged: 0/0
  3995 ;; Data sizes:     COMMON   BANK0   BANK1   BANK2   BANK3   BANK4   BANK5   BANK6
  3996 ;;      Params:         0       0       0       0       0       0       0       0
  3997 ;;      Locals:         0       0       0       0       0       0       0       0
  3998 ;;      Temps:          0       0       0       0       0       0       0       0
  3999 ;;      Totals:         0       0       0       0       0       0       0       0
  4000 ;;Total ram usage:        0 bytes
  4001 ;; Hardware stack levels used: 1
  4002 ;; Hardware stack levels required when called: 1
  4003 ;; This function calls:
  4004 ;;		_I2C_SlaveGetRxData
  4005 ;; This function is called by:
  4006 ;;		_I2C_Open
  4007 ;;		_I2C_SlaveRdCallBack
  4008 ;; This function uses a non-reentrant model
  4009 ;;
  4010                           
  4011     01FF                     _I2C_SlaveDefRdInterruptHandler:	
  4012                           ;psect for function _I2C_SlaveDefRdInterruptHandler
  4013                           
  4014     01FF                     i1l1576:	
  4015                           ;incstack = 0
  4016                           ; Regs used in _I2C_SlaveDefRdInterruptHandler: [wreg+pclath+cstack]
  4017                           
  4018                           
  4019                           ;mcc_generated_files/i2c_slave.c: 242:     i2cRdData = I2C_SlaveGetRxData();
  4020     01FF  3182  2222  3181   	fcall	_I2C_SlaveGetRxData
  4021     0202  00F2               	movwf	_i2cRdData	;volatile
  4022     0203                     i1l368:
  4023     0203  0008               	return
  4024     0204                     __end_of_I2C_SlaveDefRdInterruptHandler:
  4025                           
  4026                           	psect	text27
  4027     01AB                     __ptext27:	
  4028 ;; *************** function _I2C_SlaveIsTxBufEmpty *****************
  4029 ;; Defined at:
  4030 ;;		line 381 in file "mcc_generated_files/i2c_slave.c"
  4031 ;; Parameters:    Size  Location     Type
  4032 ;;		None
  4033 ;; Auto vars:     Size  Location     Type
  4034 ;;		None
  4035 ;; Return value:  Size  Location     Type
  4036 ;;                  1    wreg      _Bool 
  4037 ;; Registers used:
  4038 ;;		wreg, status,0
  4039 ;; Tracked objects:
  4040 ;;		On entry : 0/0
  4041 ;;		On exit  : 0/0
  4042 ;;		Unchanged: 0/0
  4043 ;; Data sizes:     COMMON   BANK0   BANK1   BANK2   BANK3   BANK4   BANK5   BANK6
  4044 ;;      Params:         0       0       0       0       0       0       0       0
  4045 ;;      Locals:         0       0       0       0       0       0       0       0
  4046 ;;      Temps:          0       0       0       0       0       0       0       0
  4047 ;;      Totals:         0       0       0       0       0       0       0       0
  4048 ;;Total ram usage:        0 bytes
  4049 ;; Hardware stack levels used: 1
  4050 ;; This function calls:
  4051 ;;		Nothing
  4052 ;; This function is called by:
  4053 ;;		_I2C_Isr
  4054 ;; This function uses a non-reentrant model
  4055 ;;
  4056                           
  4057     01AB                     _I2C_SlaveIsTxBufEmpty:	
  4058                           ;psect for function _I2C_SlaveIsTxBufEmpty
  4059                           
  4060     01AB                     i1l1608:	
  4061                           ;incstack = 0
  4062                           ; Regs used in _I2C_SlaveIsTxBufEmpty: [wreg+status,0]
  4063                           
  4064                           
  4065                           ;mcc_generated_files/i2c_slave.c: 383:     return !SSPSTATbits.BF;
  4066     01AB  1003               	clrc
  4067     01AC  0024               	movlb	4	; select bank4
  4068     01AD  1C14               	btfss	20,0	;volatile
  4069     01AE  1403               	setc
  4070     01AF  3000               	movlw	0
  4071     01B0  3D09               	addwfc	9,w
  4072     01B1                     i1l448:
  4073     01B1  0008               	return
  4074     01B2                     __end_of_I2C_SlaveIsTxBufEmpty:
  4075                           
  4076                           	psect	text28
  4077     0212                     __ptext28:	
  4078 ;; *************** function _I2C_SlaveIsRxBufFull *****************
  4079 ;; Defined at:
  4080 ;;		line 386 in file "mcc_generated_files/i2c_slave.c"
  4081 ;; Parameters:    Size  Location     Type
  4082 ;;		None
  4083 ;; Auto vars:     Size  Location     Type
  4084 ;;		None
  4085 ;; Return value:  Size  Location     Type
  4086 ;;                  1    wreg      _Bool 
  4087 ;; Registers used:
  4088 ;;		wreg, status,2, status,0
  4089 ;; Tracked objects:
  4090 ;;		On entry : 0/0
  4091 ;;		On exit  : 0/0
  4092 ;;		Unchanged: 0/0
  4093 ;; Data sizes:     COMMON   BANK0   BANK1   BANK2   BANK3   BANK4   BANK5   BANK6
  4094 ;;      Params:         0       0       0       0       0       0       0       0
  4095 ;;      Locals:         0       0       0       0       0       0       0       0
  4096 ;;      Temps:          0       0       0       0       0       0       0       0
  4097 ;;      Totals:         0       0       0       0       0       0       0       0
  4098 ;;Total ram usage:        0 bytes
  4099 ;; Hardware stack levels used: 1
  4100 ;; This function calls:
  4101 ;;		Nothing
  4102 ;; This function is called by:
  4103 ;;		_I2C_Isr
  4104 ;; This function uses a non-reentrant model
  4105 ;;
  4106                           
  4107     0212                     _I2C_SlaveIsRxBufFull:	
  4108                           ;psect for function _I2C_SlaveIsRxBufFull
  4109                           
  4110     0212                     i1l1616:	
  4111                           ;incstack = 0
  4112                           ; Regs used in _I2C_SlaveIsRxBufFull: [wreg+status,2+status,0]
  4113                           
  4114                           
  4115                           ;mcc_generated_files/i2c_slave.c: 388:     return SSPSTATbits.BF;
  4116     0212  0024               	movlb	4	; select bank4
  4117     0213  0814               	movf	20,w	;volatile
  4118     0214  3901               	andlw	1
  4119     0215                     i1l451:
  4120     0215  0008               	return
  4121     0216                     __end_of_I2C_SlaveIsRxBufFull:
  4122                           
  4123                           	psect	text29
  4124     0204                     __ptext29:	
  4125 ;; *************** function _I2C_SlaveIsRead *****************
  4126 ;; Defined at:
  4127 ;;		line 351 in file "mcc_generated_files/i2c_slave.c"
  4128 ;; Parameters:    Size  Location     Type
  4129 ;;		None
  4130 ;; Auto vars:     Size  Location     Type
  4131 ;;		None
  4132 ;; Return value:  Size  Location     Type
  4133 ;;                  1    wreg      _Bool 
  4134 ;; Registers used:
  4135 ;;		wreg, status,2, status,0
  4136 ;; Tracked objects:
  4137 ;;		On entry : 0/0
  4138 ;;		On exit  : 0/0
  4139 ;;		Unchanged: 0/0
  4140 ;; Data sizes:     COMMON   BANK0   BANK1   BANK2   BANK3   BANK4   BANK5   BANK6
  4141 ;;      Params:         0       0       0       0       0       0       0       0
  4142 ;;      Locals:         0       0       0       0       0       0       0       0
  4143 ;;      Temps:          0       0       0       0       0       0       0       0
  4144 ;;      Totals:         0       0       0       0       0       0       0       0
  4145 ;;Total ram usage:        0 bytes
  4146 ;; Hardware stack levels used: 1
  4147 ;; This function calls:
  4148 ;;		Nothing
  4149 ;; This function is called by:
  4150 ;;		_I2C_Isr
  4151 ;;		_I2C_IsRead
  4152 ;; This function uses a non-reentrant model
  4153 ;;
  4154                           
  4155     0204                     _I2C_SlaveIsRead:	
  4156                           ;psect for function _I2C_SlaveIsRead
  4157                           
  4158     0204                     i1l1594:	
  4159                           ;incstack = 0
  4160                           ; Regs used in _I2C_SlaveIsRead: [wreg+status,2+status,0]
  4161                           
  4162                           
  4163                           ;mcc_generated_files/i2c_slave.c: 353:     return (SSPSTATbits.R_nW);
  4164     0204  0024               	movlb	4	; select bank4
  4165     0205  0C14               	rrf	20,w	;volatile
  4166     0206  0C89               	rrf	9,f
  4167     0207  3901               	andlw	1
  4168     0208                     i1l430:
  4169     0208  0008               	return
  4170     0209                     __end_of_I2C_SlaveIsRead:
  4171                           
  4172                           	psect	text30
  4173     01B2                     __ptext30:	
  4174 ;; *************** function _I2C_SlaveIsAddr *****************
  4175 ;; Defined at:
  4176 ;;		line 346 in file "mcc_generated_files/i2c_slave.c"
  4177 ;; Parameters:    Size  Location     Type
  4178 ;;		None
  4179 ;; Auto vars:     Size  Location     Type
  4180 ;;		None
  4181 ;; Return value:  Size  Location     Type
  4182 ;;                  1    wreg      _Bool 
  4183 ;; Registers used:
  4184 ;;		wreg, status,0
  4185 ;; Tracked objects:
  4186 ;;		On entry : 0/0
  4187 ;;		On exit  : 0/0
  4188 ;;		Unchanged: 0/0
  4189 ;; Data sizes:     COMMON   BANK0   BANK1   BANK2   BANK3   BANK4   BANK5   BANK6
  4190 ;;      Params:         0       0       0       0       0       0       0       0
  4191 ;;      Locals:         0       0       0       0       0       0       0       0
  4192 ;;      Temps:          0       0       0       0       0       0       0       0
  4193 ;;      Totals:         0       0       0       0       0       0       0       0
  4194 ;;Total ram usage:        0 bytes
  4195 ;; Hardware stack levels used: 1
  4196 ;; This function calls:
  4197 ;;		Nothing
  4198 ;; This function is called by:
  4199 ;;		_I2C_Isr
  4200 ;; This function uses a non-reentrant model
  4201 ;;
  4202                           
  4203     01B2                     _I2C_SlaveIsAddr:	
  4204                           ;psect for function _I2C_SlaveIsAddr
  4205                           
  4206     01B2                     i1l1600:	
  4207                           ;incstack = 0
  4208                           ; Regs used in _I2C_SlaveIsAddr: [wreg+status,0]
  4209                           
  4210                           
  4211                           ;mcc_generated_files/i2c_slave.c: 348:     return !(SSPSTATbits.D_nA);
  4212     01B2  1003               	clrc
  4213     01B3  0024               	movlb	4	; select bank4
  4214     01B4  1E94               	btfss	20,5	;volatile
  4215     01B5  1403               	setc
  4216     01B6  3000               	movlw	0
  4217     01B7  3D09               	addwfc	9,w
  4218     01B8                     i1l427:
  4219     01B8  0008               	return
  4220     01B9                     __end_of_I2C_SlaveIsAddr:
  4221                           
  4222                           	psect	text31
  4223     021C                     __ptext31:	
  4224 ;; *************** function _I2C_SlaveClearIrq *****************
  4225 ;; Defined at:
  4226 ;;		line 356 in file "mcc_generated_files/i2c_slave.c"
  4227 ;; Parameters:    Size  Location     Type
  4228 ;;		None
  4229 ;; Auto vars:     Size  Location     Type
  4230 ;;		None
  4231 ;; Return value:  Size  Location     Type
  4232 ;;                  1    wreg      void 
  4233 ;; Registers used:
  4234 ;;		None
  4235 ;; Tracked objects:
  4236 ;;		On entry : 0/0
  4237 ;;		On exit  : 0/0
  4238 ;;		Unchanged: 0/0
  4239 ;; Data sizes:     COMMON   BANK0   BANK1   BANK2   BANK3   BANK4   BANK5   BANK6
  4240 ;;      Params:         0       0       0       0       0       0       0       0
  4241 ;;      Locals:         0       0       0       0       0       0       0       0
  4242 ;;      Temps:          0       0       0       0       0       0       0       0
  4243 ;;      Totals:         0       0       0       0       0       0       0       0
  4244 ;;Total ram usage:        0 bytes
  4245 ;; Hardware stack levels used: 1
  4246 ;; This function calls:
  4247 ;;		Nothing
  4248 ;; This function is called by:
  4249 ;;		_I2C_Isr
  4250 ;; This function uses a non-reentrant model
  4251 ;;
  4252                           
  4253     021C                     _I2C_SlaveClearIrq:	
  4254                           ;psect for function _I2C_SlaveClearIrq
  4255                           
  4256     021C                     i1l1598:	
  4257                           ;incstack = 0
  4258                           ; Regs used in _I2C_SlaveClearIrq: []
  4259                           
  4260                           
  4261                           ;mcc_generated_files/i2c_slave.c: 358:     PIR1bits.SSPIF = 0;
  4262     021C  0020               	movlb	0	; select bank0
  4263     021D  1191               	bcf	17,3	;volatile
  4264     021E                     i1l433:
  4265     021E  0008               	return
  4266     021F                     __end_of_I2C_SlaveClearIrq:
  4267                           
  4268                           	psect	text32
  4269     018C                     __ptext32:	
  4270 ;; *************** function _I2C_SlaveAddrCallBack *****************
  4271 ;; Defined at:
  4272 ;;		line 267 in file "mcc_generated_files/i2c_slave.c"
  4273 ;; Parameters:    Size  Location     Type
  4274 ;;		None
  4275 ;; Auto vars:     Size  Location     Type
  4276 ;;		None
  4277 ;; Return value:  Size  Location     Type
  4278 ;;                  1    wreg      void 
  4279 ;; Registers used:
  4280 ;;		wreg, status,2, status,0, pclath, cstack
  4281 ;; Tracked objects:
  4282 ;;		On entry : 0/0
  4283 ;;		On exit  : 0/0
  4284 ;;		Unchanged: 0/0
  4285 ;; Data sizes:     COMMON   BANK0   BANK1   BANK2   BANK3   BANK4   BANK5   BANK6
  4286 ;;      Params:         0       0       0       0       0       0       0       0
  4287 ;;      Locals:         0       0       0       0       0       0       0       0
  4288 ;;      Temps:          0       0       0       0       0       0       0       0
  4289 ;;      Totals:         0       0       0       0       0       0       0       0
  4290 ;;Total ram usage:        0 bytes
  4291 ;; Hardware stack levels used: 1
  4292 ;; Hardware stack levels required when called: 2
  4293 ;; This function calls:
  4294 ;;		NULL
  4295 ;;		_AddressIntHandler
  4296 ;;		_I2C_SlaveDefAddrInterruptHandler
  4297 ;; This function is called by:
  4298 ;;		_I2C_Isr
  4299 ;; This function uses a non-reentrant model
  4300 ;;
  4301                           
  4302     018C                     _I2C_SlaveAddrCallBack:	
  4303                           ;psect for function _I2C_SlaveAddrCallBack
  4304                           
  4305     018C                     i1l1604:	
  4306                           ;incstack = 0
  4307                           ; Regs used in _I2C_SlaveAddrCallBack: [wreg+status,2+status,0+pclath+cstack]
  4308                           
  4309                           
  4310                           ;mcc_generated_files/i2c_slave.c: 269:     if (I2C_SlaveAddrInterruptHandler) {
  4311     018C  0020               	movlb	0	; select bank0
  4312     018D  0826               	movf	_I2C_SlaveAddrInterruptHandler,w
  4313     018E  0427               	iorwf	_I2C_SlaveAddrInterruptHandler+1,w
  4314     018F  1903               	btfsc	3,2
  4315     0190  2992               	goto	u28_21
  4316     0191  2993               	goto	u28_20
  4317     0192                     u28_21:
  4318     0192  2998               	goto	i1l385
  4319     0193                     u28_20:
  4320     0193                     i1l1606:
  4321                           
  4322                           ;mcc_generated_files/i2c_slave.c: 270:         I2C_SlaveAddrInterruptHandler();
  4323     0193  0827               	movf	_I2C_SlaveAddrInterruptHandler+1,w
  4324     0194  008A               	movwf	10
  4325     0195  0826               	movf	_I2C_SlaveAddrInterruptHandler,w
  4326     0196  000A               	callw
  4327     0197  3181               	pagesel	$
  4328     0198                     i1l385:
  4329     0198  0008               	return
  4330     0199                     __end_of_I2C_SlaveAddrCallBack:
  4331                           
  4332                           	psect	text33
  4333     021F                     __ptext33:	
  4334 ;; *************** function _AddressIntHandler *****************
  4335 ;; Defined at:
  4336 ;;		line 21 in file "main.c"
  4337 ;; Parameters:    Size  Location     Type
  4338 ;;		None
  4339 ;; Auto vars:     Size  Location     Type
  4340 ;;  buf             1    0        unsigned char 
  4341 ;; Return value:  Size  Location     Type
  4342 ;;                  1    wreg      void 
  4343 ;; Registers used:
  4344 ;;		wreg
  4345 ;; Tracked objects:
  4346 ;;		On entry : 0/0
  4347 ;;		On exit  : 0/0
  4348 ;;		Unchanged: 0/0
  4349 ;; Data sizes:     COMMON   BANK0   BANK1   BANK2   BANK3   BANK4   BANK5   BANK6
  4350 ;;      Params:         0       0       0       0       0       0       0       0
  4351 ;;      Locals:         0       0       0       0       0       0       0       0
  4352 ;;      Temps:          0       0       0       0       0       0       0       0
  4353 ;;      Totals:         0       0       0       0       0       0       0       0
  4354 ;;Total ram usage:        0 bytes
  4355 ;; Hardware stack levels used: 1
  4356 ;; This function calls:
  4357 ;;		Nothing
  4358 ;; This function is called by:
  4359 ;;		_main
  4360 ;;		_I2C_SlaveAddrCallBack
  4361 ;; This function uses a non-reentrant model
  4362 ;;
  4363                           
  4364     021F                     _AddressIntHandler:	
  4365                           ;psect for function _AddressIntHandler
  4366                           
  4367     021F                     i1l1574:	
  4368                           ;incstack = 0
  4369                           ; Regs used in _AddressIntHandler: [wreg]
  4370                           
  4371     021F  0024               	movlb	4	; select bank4
  4372     0220  0811               	movf	17,w	;volatile
  4373     0221                     i1l133:
  4374     0221  0008               	return
  4375     0222                     __end_of_AddressIntHandler:
  4376                           
  4377                           	psect	text34
  4378     0209                     __ptext34:	
  4379 ;; *************** function _I2C_SlaveDefAddrInterruptHandler *****************
  4380 ;; Defined at:
  4381 ;;		line 274 in file "mcc_generated_files/i2c_slave.c"
  4382 ;; Parameters:    Size  Location     Type
  4383 ;;		None
  4384 ;; Auto vars:     Size  Location     Type
  4385 ;;		None
  4386 ;; Return value:  Size  Location     Type
  4387 ;;                  1    wreg      void 
  4388 ;; Registers used:
  4389 ;;		wreg, pclath, cstack
  4390 ;; Tracked objects:
  4391 ;;		On entry : 0/0
  4392 ;;		On exit  : 0/0
  4393 ;;		Unchanged: 0/0
  4394 ;; Data sizes:     COMMON   BANK0   BANK1   BANK2   BANK3   BANK4   BANK5   BANK6
  4395 ;;      Params:         0       0       0       0       0       0       0       0
  4396 ;;      Locals:         0       0       0       0       0       0       0       0
  4397 ;;      Temps:          0       0       0       0       0       0       0       0
  4398 ;;      Totals:         0       0       0       0       0       0       0       0
  4399 ;;Total ram usage:        0 bytes
  4400 ;; Hardware stack levels used: 1
  4401 ;; Hardware stack levels required when called: 1
  4402 ;; This function calls:
  4403 ;;		_I2C_SlaveGetRxData
  4404 ;; This function is called by:
  4405 ;;		_I2C_Open
  4406 ;;		_I2C_SlaveAddrCallBack
  4407 ;; This function uses a non-reentrant model
  4408 ;;
  4409                           
  4410     0209                     _I2C_SlaveDefAddrInterruptHandler:	
  4411                           ;psect for function _I2C_SlaveDefAddrInterruptHandler
  4412                           
  4413     0209                     i1l1580:	
  4414                           ;incstack = 0
  4415                           ; Regs used in _I2C_SlaveDefAddrInterruptHandler: [wreg+pclath+cstack]
  4416                           
  4417                           
  4418                           ;mcc_generated_files/i2c_slave.c: 275:     i2cSlaveAddr = I2C_SlaveGetRxData();
  4419     0209  3182  2222  3182   	fcall	_I2C_SlaveGetRxData
  4420     020C  00F1               	movwf	_i2cSlaveAddr	;volatile
  4421     020D                     i1l388:
  4422     020D  0008               	return
  4423     020E                     __end_of_I2C_SlaveDefAddrInterruptHandler:
  4424                           
  4425                           	psect	text35
  4426     0222                     __ptext35:	
  4427 ;; *************** function _I2C_SlaveGetRxData *****************
  4428 ;; Defined at:
  4429 ;;		line 396 in file "mcc_generated_files/i2c_slave.c"
  4430 ;; Parameters:    Size  Location     Type
  4431 ;;		None
  4432 ;; Auto vars:     Size  Location     Type
  4433 ;;		None
  4434 ;; Return value:  Size  Location     Type
  4435 ;;                  1    wreg      unsigned char 
  4436 ;; Registers used:
  4437 ;;		wreg
  4438 ;; Tracked objects:
  4439 ;;		On entry : 0/0
  4440 ;;		On exit  : 0/0
  4441 ;;		Unchanged: 0/0
  4442 ;; Data sizes:     COMMON   BANK0   BANK1   BANK2   BANK3   BANK4   BANK5   BANK6
  4443 ;;      Params:         0       0       0       0       0       0       0       0
  4444 ;;      Locals:         0       0       0       0       0       0       0       0
  4445 ;;      Temps:          0       0       0       0       0       0       0       0
  4446 ;;      Totals:         0       0       0       0       0       0       0       0
  4447 ;;Total ram usage:        0 bytes
  4448 ;; Hardware stack levels used: 1
  4449 ;; This function calls:
  4450 ;;		Nothing
  4451 ;; This function is called by:
  4452 ;;		_I2C_SlaveDefRdInterruptHandler
  4453 ;;		_I2C_SlaveDefAddrInterruptHandler
  4454 ;;		_I2C_Read
  4455 ;; This function uses a non-reentrant model
  4456 ;;
  4457                           
  4458     0222                     _I2C_SlaveGetRxData:	
  4459                           ;psect for function _I2C_SlaveGetRxData
  4460                           
  4461     0222                     i1l1560:	
  4462                           ;incstack = 0
  4463                           ; Regs used in _I2C_SlaveGetRxData: [wreg]
  4464                           
  4465                           
  4466                           ;mcc_generated_files/i2c_slave.c: 398:     return SSPBUF;
  4467     0222  0024               	movlb	4	; select bank4
  4468     0223  0811               	movf	17,w	;volatile
  4469     0224                     i1l457:
  4470     0224  0008               	return
  4471     0225                     __end_of_I2C_SlaveGetRxData:
  4472     007E                     btemp	set	126	;btemp
  4473     007E                     int$flags	set	126
  4474     007E                     wtemp0	set	126
  4475                           
  4476                           	psect	config
  4477                           
  4478                           ;Config register CONFIG1 @ 0x8007
  4479                           ;	Oscillator Selection
  4480                           ;	FOSC = INTOSC, INTOSC oscillator: I/O function on CLKIN pin
  4481                           ;	Watchdog Timer Enable
  4482                           ;	WDTE = OFF, WDT disabled
  4483                           ;	Power-up Timer Enable
  4484                           ;	PWRTE = OFF, PWRT disabled
  4485                           ;	MCLR Pin Function Select
  4486                           ;	MCLRE = ON, MCLR/VPP pin function is MCLR
  4487                           ;	Flash Program Memory Code Protection
  4488                           ;	CP = OFF, Program memory code protection is disabled
  4489                           ;	Data Memory Code Protection
  4490                           ;	CPD = OFF, Data memory code protection is disabled
  4491                           ;	Brown-out Reset Enable
  4492                           ;	BOREN = ON, Brown-out Reset enabled
  4493                           ;	Clock Out Enable
  4494                           ;	CLKOUTEN = OFF, CLKOUT function is disabled. I/O or oscillator function on the CLKOUT 
      +                          pin
  4495                           ;	Internal/External Switchover
  4496                           ;	IESO = ON, Internal/External Switchover mode is enabled
  4497                           ;	Fail-Safe Clock Monitor Enable
  4498                           ;	FCMEN = ON, Fail-Safe Clock Monitor is enabled
  4499     8007                     	org	32775
  4500     8007  3FE4               	dw	16356
  4501                           
  4502                           ;Config register CONFIG2 @ 0x8008
  4503                           ;	Flash Memory Self-Write Protection
  4504                           ;	WRT = OFF, Write protection off
  4505                           ;	PLL Enable
  4506                           ;	PLLEN = OFF, 4x PLL disabled
  4507                           ;	Stack Overflow/Underflow Reset Enable
  4508                           ;	STVREN = ON, Stack Overflow or Underflow will cause a Reset
  4509                           ;	Brown-out Reset Voltage Selection
  4510                           ;	BORV = LO, Brown-out Reset Voltage (Vbor), low trip point selected.
  4511                           ;	Low-Voltage Programming Enable
  4512                           ;	LVP = ON, Low-voltage programming enabled
  4513     8008                     	org	32776
  4514     8008  3EFF               	dw	16127

Data Sizes:
    Strings     0
    Constant    0
    Data        0
    BSS         22
    Persistent  32
    Stack       0

Auto Spaces:
    Space          Size  Autos    Used
    COMMON           14      4      12
    BANK0            80      2      16
    BANK1            80      0       0
    BANK2            80      0       0
    BANK3            80      0       0
    BANK4            80      0       0
    BANK5            80      0       0
    BANK6            16      0       0

Pointer List with Targets:

    I2C_SlaveSetBusColIntHandler@handler	PTR FTN()void  size(2) Largest target is 1
		 -> I2C_SlaveDefBusColInterruptHandler(), 

    I2C_SlaveBusColInterruptHandler	PTR FTN()void  size(2) Largest target is 1
		 -> NULL(), I2C_SlaveDefBusColInterruptHandler(), 

    I2C_SlaveSetWrColIntHandler@handler	PTR FTN()void  size(2) Largest target is 1
		 -> I2C_SlaveDefWrColInterruptHandler(), 

    I2C_SlaveWrColInterruptHandler	PTR FTN()void  size(2) Largest target is 1
		 -> NULL(), I2C_SlaveDefWrColInterruptHandler(), 

    I2C_SlaveSetAddrIntHandler@handler	PTR FTN()void  size(2) Largest target is 1
		 -> I2C_SlaveDefAddrInterruptHandler(), AddressIntHandler(), 

    I2C_SlaveAddrInterruptHandler	PTR FTN()void  size(2) Largest target is 1
		 -> NULL(), I2C_SlaveDefAddrInterruptHandler(), AddressIntHandler(), 

    I2C_SlaveSetWriteIntHandler@handler	PTR FTN()void  size(2) Largest target is 1
		 -> I2C_SlaveDefWrInterruptHandler(), ReadIntHandler(), 

    I2C_SlaveWrInterruptHandler	PTR FTN()void  size(2) Largest target is 1
		 -> NULL(), I2C_SlaveDefWrInterruptHandler(), ReadIntHandler(), 

    I2C_SlaveSetReadIntHandler@handler	PTR FTN()void  size(2) Largest target is 1
		 -> I2C_SlaveDefRdInterruptHandler(), 

    I2C_SlaveRdInterruptHandler	PTR FTN()void  size(2) Largest target is 1
		 -> NULL(), I2C_SlaveDefRdInterruptHandler(), 

    I2C_SlaveSetIsrHandler@handler	PTR FTN()void  size(2) Largest target is 1
		 -> I2C_Isr(), 

    MSSP_InterruptHandler	PTR FTN()void  size(2) Largest target is 1
		 -> NULL(), I2C_Isr(), 


Critical Paths under _main in COMMON

    None.

Critical Paths under _INTERRUPT_InterruptManager in COMMON

    _INTERRUPT_InterruptManager->_I2C_Isr
    _ReadIntHandler->_I2C_Write
    _I2C_Write->_I2C_SlaveSendTxData
    _I2C_SlaveDefWrInterruptHandler->_I2C_SlaveSendTxData

Critical Paths under _main in BANK0

    _main->_I2C_SlaveSetAddrIntHandler
    _main->_I2C_SlaveSetWriteIntHandler
    _SYSTEM_Initialize->_I2C_Initialize
    _I2C_Open->_I2C_SlaveSetAddrIntHandler
    _I2C_Open->_I2C_SlaveSetBusColIntHandler
    _I2C_Open->_I2C_SlaveSetIsrHandler
    _I2C_Open->_I2C_SlaveSetReadIntHandler
    _I2C_Open->_I2C_SlaveSetWrColIntHandler
    _I2C_Open->_I2C_SlaveSetWriteIntHandler

Critical Paths under _INTERRUPT_InterruptManager in BANK0

    None.

Critical Paths under _main in BANK1

    None.

Critical Paths under _INTERRUPT_InterruptManager in BANK1

    None.

Critical Paths under _main in BANK2

    None.

Critical Paths under _INTERRUPT_InterruptManager in BANK2

    None.

Critical Paths under _main in BANK3

    None.

Critical Paths under _INTERRUPT_InterruptManager in BANK3

    None.

Critical Paths under _main in BANK4

    None.

Critical Paths under _INTERRUPT_InterruptManager in BANK4

    None.

Critical Paths under _main in BANK5

    None.

Critical Paths under _INTERRUPT_InterruptManager in BANK5

    None.

Critical Paths under _main in BANK6

    None.

Critical Paths under _INTERRUPT_InterruptManager in BANK6

    None.

Call Graph Tables:

 ---------------------------------------------------------------------------------
 (Depth) Function   	        Calls       Base Space   Used Autos Params    Refs
 ---------------------------------------------------------------------------------
 (0) _main                                                 0     0      0    1372
                     _I2C_Initialize
                           _I2C_Open
         _I2C_SlaveSetAddrIntHandler
        _I2C_SlaveSetWriteIntHandler
                  _SYSTEM_Initialize
 ---------------------------------------------------------------------------------
 (1) _SYSTEM_Initialize                                    0     0      0       0
                     _I2C_Initialize
              _OSCILLATOR_Initialize
             _PIN_MANAGER_Initialize
                     _WDT_Initialize
 ---------------------------------------------------------------------------------
 (2) _WDT_Initialize                                       0     0      0       0
 ---------------------------------------------------------------------------------
 (2) _PIN_MANAGER_Initialize                               0     0      0       0
 ---------------------------------------------------------------------------------
 (2) _OSCILLATOR_Initialize                                0     0      0       0
 ---------------------------------------------------------------------------------
 (2) _I2C_Initialize                                       1     1      0       0
                                              0 BANK0      1     1      0
 ---------------------------------------------------------------------------------
 (1) _I2C_Open                                             0     0      0     950
                 _I2C_SlaveEnableIrq
                      _I2C_SlaveOpen
         _I2C_SlaveSetAddrIntHandler
       _I2C_SlaveSetBusColIntHandler
             _I2C_SlaveSetIsrHandler
         _I2C_SlaveSetReadIntHandler
              _I2C_SlaveSetSlaveAddr
              _I2C_SlaveSetSlaveMask
        _I2C_SlaveSetWrColIntHandler
        _I2C_SlaveSetWriteIntHandler
 ---------------------------------------------------------------------------------
 (1) _I2C_SlaveSetWriteIntHandler                          2     0      2     211
                                              0 BANK0      2     0      2
 ---------------------------------------------------------------------------------
 (2) _I2C_SlaveSetWrColIntHandler                          2     0      2     121
                                              0 BANK0      2     0      2
 ---------------------------------------------------------------------------------
 (2) _I2C_SlaveSetSlaveMask                                1     1      0      22
                                              0 BANK0      1     1      0
 ---------------------------------------------------------------------------------
 (2) _I2C_SlaveSetSlaveAddr                                1     1      0      22
                                              0 BANK0      1     1      0
 ---------------------------------------------------------------------------------
 (2) _I2C_SlaveSetReadIntHandler                           2     0      2     121
                                              0 BANK0      2     0      2
 ---------------------------------------------------------------------------------
 (2) _I2C_SlaveSetIsrHandler                               2     0      2     121
                                              0 BANK0      2     0      2
 ---------------------------------------------------------------------------------
 (2) _I2C_SlaveSetBusColIntHandler                         2     0      2     121
                                              0 BANK0      2     0      2
 ---------------------------------------------------------------------------------
 (1) _I2C_SlaveSetAddrIntHandler                           2     0      2     211
                                              0 BANK0      2     0      2
 ---------------------------------------------------------------------------------
 (2) _I2C_SlaveOpen                                        1     1      0       0
                                              0 BANK0      1     1      0
 ---------------------------------------------------------------------------------
 (2) _I2C_SlaveEnableIrq                                   0     0      0       0
 ---------------------------------------------------------------------------------
 Estimated maximum stack depth 2
 ---------------------------------------------------------------------------------
 (Depth) Function   	        Calls       Base Space   Used Autos Params    Refs
 ---------------------------------------------------------------------------------
 (3) _INTERRUPT_InterruptManager                           0     0      0      67
                                NULL *
                            _I2C_Isr *
 ---------------------------------------------------------------------------------
 (4) _I2C_Isr                                              2     2      0      67
                                              2 COMMON     2     2      0
              _I2C_SlaveAddrCallBack
                  _I2C_SlaveClearIrq
                    _I2C_SlaveIsAddr
                    _I2C_SlaveIsRead
               _I2C_SlaveIsRxBufFull
              _I2C_SlaveIsTxBufEmpty
                _I2C_SlaveRdCallBack
              _I2C_SlaveReleaseClock
                _I2C_SlaveWrCallBack
 ---------------------------------------------------------------------------------
 (5) _I2C_SlaveWrCallBack                                  0     0      0      66
                                NULL *
     _I2C_SlaveDefWrInterruptHandler *
                     _ReadIntHandler *
 ---------------------------------------------------------------------------------
 (6) _ReadIntHandler                                       0     0      0      44
                          _I2C_Write
 ---------------------------------------------------------------------------------
 (7) _I2C_Write                                            1     1      0      44
                                              1 COMMON     1     1      0
                _I2C_SlaveSendTxData
 ---------------------------------------------------------------------------------
 (6) _I2C_SlaveDefWrInterruptHandler                       0     0      0      22
                _I2C_SlaveSendTxData
 ---------------------------------------------------------------------------------
 (8) _I2C_SlaveSendTxData                                  1     1      0      22
                                              0 COMMON     1     1      0
 ---------------------------------------------------------------------------------
 (5) _I2C_SlaveReleaseClock                                0     0      0       0
 ---------------------------------------------------------------------------------
 (5) _I2C_SlaveRdCallBack                                  0     0      0       0
                                NULL *
     _I2C_SlaveDefRdInterruptHandler *
 ---------------------------------------------------------------------------------
 (6) _I2C_SlaveDefRdInterruptHandler                       0     0      0       0
                 _I2C_SlaveGetRxData
 ---------------------------------------------------------------------------------
 (5) _I2C_SlaveIsTxBufEmpty                                0     0      0       0
 ---------------------------------------------------------------------------------
 (5) _I2C_SlaveIsRxBufFull                                 0     0      0       0
 ---------------------------------------------------------------------------------
 (5) _I2C_SlaveIsRead                                      0     0      0       0
 ---------------------------------------------------------------------------------
 (5) _I2C_SlaveIsAddr                                      0     0      0       0
 ---------------------------------------------------------------------------------
 (5) _I2C_SlaveClearIrq                                    0     0      0       0
 ---------------------------------------------------------------------------------
 (5) _I2C_SlaveAddrCallBack                                0     0      0       1
                                NULL *
                  _AddressIntHandler *
   _I2C_SlaveDefAddrInterruptHandler *
 ---------------------------------------------------------------------------------
 (6) _I2C_SlaveDefAddrInterruptHandler                     0     0      0       0
                 _I2C_SlaveGetRxData
 ---------------------------------------------------------------------------------
 (7) _I2C_SlaveGetRxData                                   0     0      0       0
 ---------------------------------------------------------------------------------
 (6) _AddressIntHandler                                    1     1      0       1
 ---------------------------------------------------------------------------------
 (6) NULL(Fake)                                            0     0      0       0
 ---------------------------------------------------------------------------------
 Estimated maximum stack depth 8
 ---------------------------------------------------------------------------------

 Call Graph Graphs:

 _main (ROOT)
   _I2C_Initialize
   _I2C_Open
     _I2C_SlaveEnableIrq
     _I2C_SlaveOpen
     _I2C_SlaveSetAddrIntHandler
     _I2C_SlaveSetBusColIntHandler
     _I2C_SlaveSetIsrHandler
     _I2C_SlaveSetReadIntHandler
     _I2C_SlaveSetSlaveAddr
     _I2C_SlaveSetSlaveMask
     _I2C_SlaveSetWrColIntHandler
     _I2C_SlaveSetWriteIntHandler
   _I2C_SlaveSetAddrIntHandler
   _I2C_SlaveSetWriteIntHandler
   _SYSTEM_Initialize
     _I2C_Initialize
     _OSCILLATOR_Initialize
     _PIN_MANAGER_Initialize
     _WDT_Initialize

 _INTERRUPT_InterruptManager (ROOT)
   NULL(Fake) *
   _I2C_Isr *
     _I2C_SlaveAddrCallBack
       NULL(Fake) *
       _AddressIntHandler *
       _I2C_SlaveDefAddrInterruptHandler *
         _I2C_SlaveGetRxData
     _I2C_SlaveClearIrq
     _I2C_SlaveIsAddr
     _I2C_SlaveIsRead
     _I2C_SlaveIsRxBufFull
     _I2C_SlaveIsTxBufEmpty
     _I2C_SlaveRdCallBack
       NULL(Fake) *
       _I2C_SlaveDefRdInterruptHandler *
         _I2C_SlaveGetRxData
     _I2C_SlaveReleaseClock
     _I2C_SlaveWrCallBack
       NULL(Fake) *
       _I2C_SlaveDefWrInterruptHandler *
         _I2C_SlaveSendTxData
       _ReadIntHandler *
         _I2C_Write
           _I2C_SlaveSendTxData

 Address spaces:
Name               Size   Autos  Total    Cost      Usage
BIGRAM             1F0      0       0       0        0.0%
EEDATA             100      0       0       0        0.0%
NULL                 0      0       0       0        0.0%
CODE                 0      0       0       0        0.0%
BITCOMMON            E      0       0       1        0.0%
BITSFR0              0      0       0       1        0.0%
SFR0                 0      0       0       1        0.0%
COMMON               E      4       C       2       85.7%
BITSFR1              0      0       0       2        0.0%
SFR1                 0      0       0       2        0.0%
BITSFR2              0      0       0       3        0.0%
SFR2                 0      0       0       3        0.0%
STACK                0      0       0       3        0.0%
BITSFR3              0      0       0       4        0.0%
SFR3                 0      0       0       4        0.0%
ABS                  0      0      1C       4        0.0%
BITBANK0            50      0       0       5        0.0%
BITSFR4              0      0       0       5        0.0%
SFR4                 0      0       0       5        0.0%
BANK0               50      2      10       6       20.0%
BITSFR5              0      0       0       6        0.0%
SFR5                 0      0       0       6        0.0%
BITBANK1            50      0       0       7        0.0%
BITSFR6              0      0       0       7        0.0%
SFR6                 0      0       0       7        0.0%
BANK1               50      0       0       8        0.0%
BITSFR7              0      0       0       8        0.0%
SFR7                 0      0       0       8        0.0%
BITBANK2            50      0       0       9        0.0%
BITSFR8              0      0       0       9        0.0%
SFR8                 0      0       0       9        0.0%
BANK2               50      0       0      10        0.0%
BITSFR9              0      0       0      10        0.0%
SFR9                 0      0       0      10        0.0%
BITBANK3            50      0       0      11        0.0%
BITSFR10             0      0       0      11        0.0%
SFR10                0      0       0      11        0.0%
BANK3               50      0       0      12        0.0%
BITSFR11             0      0       0      12        0.0%
SFR11                0      0       0      12        0.0%
BITBANK4            50      0       0      13        0.0%
BITSFR12             0      0       0      13        0.0%
SFR12                0      0       0      13        0.0%
BANK4               50      0       0      14        0.0%
BITSFR13             0      0       0      14        0.0%
SFR13                0      0       0      14        0.0%
BITBANK5            50      0       0      15        0.0%
BITSFR14             0      0       0      15        0.0%
SFR14                0      0       0      15        0.0%
BANK5               50      0       0      16        0.0%
BITSFR15             0      0       0      16        0.0%
SFR15                0      0       0      16        0.0%
BITBANK6            10      0       0      17        0.0%
BITSFR16             0      0       0      17        0.0%
SFR16                0      0       0      17        0.0%
BANK6               10      0       0      18        0.0%
BITSFR17             0      0       0      18        0.0%
SFR17                0      0       0      18        0.0%
BITSFR18             0      0       0      19        0.0%
SFR18                0      0       0      19        0.0%
DATA                 0      0      1C      19        0.0%
BITSFR19             0      0       0      20        0.0%
SFR19                0      0       0      20        0.0%
BITSFR20             0      0       0      21        0.0%
SFR20                0      0       0      21        0.0%
BITSFR21             0      0       0      22        0.0%
SFR21                0      0       0      22        0.0%
BITSFR22             0      0       0      23        0.0%
SFR22                0      0       0      23        0.0%
BITSFR23             0      0       0      24        0.0%
SFR23                0      0       0      24        0.0%
BITSFR24             0      0       0      25        0.0%
SFR24                0      0       0      25        0.0%
BITSFR25             0      0       0      26        0.0%
SFR25                0      0       0      26        0.0%
BITSFR26             0      0       0      27        0.0%
SFR26                0      0       0      27        0.0%
BITSFR27             0      0       0      28        0.0%
SFR27                0      0       0      28        0.0%
BITSFR28             0      0       0      29        0.0%
SFR28                0      0       0      29        0.0%
BITSFR29             0      0       0      30        0.0%
SFR29                0      0       0      30        0.0%
BITSFR30             0      0       0      31        0.0%
SFR30                0      0       0      31        0.0%
BITSFR31             0      0       0      32        0.0%
SFR31                0      0       0      32        0.0%


Microchip Technology PIC Macro Assembler V2.41 build 20230208172133 
Symbol Table                                                                                   Thu Jul 06 12:01:32 2023

                             _SSPSTATbits 0214                                        l31 0143  
                                      l71 0211                                        l65 0171  
                                      l68 01AA                                       l141 00BA  
                                     l142 00B9                                       l312 01A3  
                                     l401 01E8                                       l138 00B3  
                                     l315 0128                                       l139 00B2  
                                     l412 0164                                       l148 00E6  
                                     l421 01D0                                       l424 0218  
                                     l361 01DC                                       l418 01D6  
                                     l371 01C4                                       l381 01EE  
                                     l358 01E2                                       l391 01CA  
    __end_of_I2C_SlaveSetBusColIntHandler 01E9              _I2C_SlaveSetBusColIntHandler 01E3  
                                     u460 015B                                       u461 015A  
                                     u470 00B8                                       u471 00B7  
                                     u480 00BF                                       u481 00BE  
                   ??_I2C_SlaveRdCallBack 0078                       _I2C_SlaveSendTxData 01FA  
           I2C_SlaveSetSlaveMask@maskAddr 002E                           __end_of_I2C_Isr 00A6  
                                     wreg 0009                       _I2C_SlaveWrCallBack 0172  
                                    l1810 01D7                                      l1802 01D3  
                                    l1804 01CD                                      l1812 01C5  
                                    l1820 0125                                      l1814 0216  
                                    l1806 01DD                                      l1830 00B0  
                                    l1822 00A6                                      l1808 01E3  
                                    l1760 0133                                      l1816 0165  
                                    l1840 00D8                                      l1832 00BF  
                                    l1824 00A9                                      l1818 00EA  
                                    l1770 0199                                      l1762 0135  
                                    l1754 0129                                      l1850 00DF  
                                    l1842 00D9                                      l1834 00D2  
                                    l1826 00AA                                      l1772 019B  
                                    l1780 01A7                                      l1764 0137  
                                    l1756 012E                                      l1852 00E1  
                                    l1844 00DB                                      l1836 00D5  
                                    l1828 00AE                                      l1790 0156  
                                    l1774 01A1                                      l1782 01A8  
                                    l1766 013A                                      l1758 0131  
                                    l1854 00E4                                      l1846 00DD  
                                    l1838 00D7                                      l1792 015B  
                                    l1776 01A2                                      l1768 013F  
                                    l1784 020E                                      l1848 00DE  
                                    l1794 015C                                      l1786 01BF  
                                    l1778 01A4                                      l1796 0162  
                                    l1788 01E9                                      l1798 0163  
                                    _LATA 010C                                      _LATB 010D  
                                    _LATC 010E                                      _LATE 0110  
                                    _WPUB 020D                                      _WPUE 0210  
                 __end_of_I2C_SlaveIsAddr 01B9                   __end_of_I2C_SlaveIsRead 0209  
                                    _dath 0074                                      _datl 0075  
                                    _main 00A6         I2C_SlaveSetAddrIntHandler@handler 002E  
                                    fsr0h 0005                                      indf0 0000  
                                    fsr0l 0004                          __end_of_I2C_Open 0129  
                                    btemp 007E                      ?_I2C_SlaveSendTxData 0078  
                                    start 0027                      ?_I2C_SlaveWrCallBack 0078  
       I2C_SlaveSetReadIntHandler@handler 002E             __end_of_I2C_SlaveAddrCallBack 0199  
           __end_of_OSCILLATOR_Initialize 01AB  __end_of_I2C_SlaveDefAddrInterruptHandler 020E  
      ??_I2C_SlaveDefAddrInterruptHandler 0078         ?_I2C_SlaveDefAddrInterruptHandler 0078  
        _I2C_SlaveDefAddrInterruptHandler 0209                                     ?_main 0078  
                                   i1l130 0155                                     i1l133 0221  
                                   i1l324 01F4                                     i1l430 0208  
                                   i1l502 0025                                     i1l433 021E  
                                   i1l427 01B8                                     i1l451 0215  
                                   i1l355 00A5                                     i1l436 021B  
                                   i1l365 018B                                     i1l454 01FE  
                                   i1l375 017E                                     i1l448 01B1  
                                   i1l368 0203                                     i1l457 0224  
                                   i1l385 0198                                     i1l378 01F9  
                                   i1l388 020D                                     i1l497 001A  
                                   i1l498 0025                             _start_barrier 0077  
                   _I2C_SlaveReleaseClock 0219                                     u30_20 0186  
                                   u30_21 0185                                     u31_20 0048  
                                   u31_21 0047                                     u32_20 0050  
                                   u32_21 004F                                     u33_20 005E  
                                   u41_20 000A                                     u33_21 005D  
                                   u41_21 0009                                     u34_20 006F  
                                   u42_20 000F                                     u34_21 006E  
                                   u42_21 000E                                     u27_20 0149  
                                   u35_20 007F                                     u43_20 0014  
                                   u27_21 0148                                     u35_21 007E  
                                   u43_21 0013                                     u28_20 0193  
                                   u36_20 0088                                     u44_20 001F  
                                   u28_21 0192                                     u36_21 0087  
                                   u44_21 001E                                     u29_20 0179  
                                   u45_20 0024                                     u29_21 0178  
                                   u45_21 0023                                     _TRISA 008C  
                                   _TRISB 008D                                     _TRISC 008E  
                                   _TRISE 0090             ?_I2C_SlaveSetBusColIntHandler 002E  
                  ??_I2C_SlaveIsRxBufFull 0078                            _WDT_Initialize 020E  
                       __end_of_I2C_Write 01F5                                     pclath 000A  
                                   status 0003                                     wtemp0 007E  
                   ??_I2C_SlaveSendTxData 0078                     ??_I2C_SlaveWrCallBack 007A  
                   _I2C_SlaveSetSlaveAddr 01D1                           __initialization 0029  
                   _I2C_SlaveSetSlaveMask 01CB                              __end_of_main 00EA  
                       _AddressIntHandler 021F               ?_INTERRUPT_InterruptManager 0078  
                               ??_I2C_Isr 007A                        ?_AddressIntHandler 0078  
                                  ??_main 0030                            _ReadIntHandler 0144  
                     ??_AddressIntHandler 0078                    __end_of_WDT_Initialize 0212  
             _I2C_SlaveRdInterruptHandler 002A               _I2C_SlaveWrInterruptHandler 0028  
              __end_of_I2C_SlaveEnableIrq 0219                __end_of_I2C_SlaveGetRxData 0225  
                                  _EEADRH 0192                                    _EEADRL 0191  
                                  _EEDATH 0194                                    _EEDATL 0193  
                                  _EECON2 0196                                    _APFCON 011D  
                                  _ANSELA 018C                                    _ANSELB 018D  
                                  _BORCON 0116                                    i1l1600 01B2  
                                  i1l1604 018C                                    i1l1620 017F  
                                  i1l1612 0172                                    i1l1606 0193  
                                  i1l1622 0186                                    i1l1614 0179  
                                  i1l1630 003D                                    i1l1560 0222  
                                  i1l1616 0212                                    i1l1608 01AB  
                                  i1l1624 0219                                    i1l1640 0056  
                                  i1l1632 0040                                    i1l1570 0150  
                                  i1l1650 006F                                    i1l1642 005E  
                                  i1l1634 0048                                    i1l1730 001F  
                                  i1l1722 0006                                    i1l1580 0209  
                                  i1l1556 01FB                                    i1l1572 0154  
                                  i1l1564 0144                                    i1l1660 0088  
                                  i1l1652 0073                                    i1l1644 0061  
                                  i1l1636 0050                                    i1l1724 000A  
                                  i1l1574 021F                                    i1l1558 01F0  
                                  i1l1566 0149                                    i1l1654 0077  
                                  i1l1646 0064                                    i1l1638 0053  
                                  i1l1726 000F                                    i1l1576 01FF  
                                  i1l1568 014D                                    i1l1648 0067  
                                  i1l1664 008C                                    i1l1728 0014  
                                  i1l1594 0204                                    i1l1578 01F5  
                                  i1l1658 0080                                    i1l1666 00A2  
                                  i1l1598 021C                                    i1l1878 0094  
                                  _OSCCON 0099                          ?_I2C_SlaveIsAddr 0078  
                                  _WDTCON 0097                                    _SSPADD 0212  
                        ?_I2C_SlaveIsRead 0078                                    _SSPBUF 0211  
                                  _SSPMSK 0213                 __end_of_AddressIntHandler 0222  
                  _I2C_SlaveSetIsrHandler 01DD                    ?_I2C_SlaveReleaseClock 0078  
                  __end_of_ReadIntHandler 0156                   ??_I2C_SlaveIsTxBufEmpty 0078  
                               ?_I2C_Open 0078       I2C_SlaveSetBusColIntHandler@handler 002E  
                         ?_WDT_Initialize 0078                             _I2C_SlaveOpen 0156  
                       _SYSTEM_Initialize 0165                   __end_of__initialization 0039  
      I2C_SlaveSetWrColIntHandler@handler 002E              ??_I2C_SlaveSetAddrIntHandler 0030  
                      ?_SYSTEM_Initialize 0078                    ?_I2C_SlaveSetSlaveAddr 0078  
                  ?_I2C_SlaveSetSlaveMask 0078                            __pcstackCOMMON 0078  
                     ??_SYSTEM_Initialize 002F            I2C_SlaveSetSlaveAddr@slaveAddr 002E  
            ??_I2C_SlaveSetReadIntHandler 0030                           ?_ReadIntHandler 0078  
                          _OPTION_REGbits 0095                                ??_I2C_Open 0030  
                          ?_I2C_SlaveOpen 0078                 __end_of_SYSTEM_Initialize 0172  
                              __pbssBANK0 0020       __end_of_I2C_SlaveSetWrColIntHandler 01CB  
             _I2C_SlaveSetWrColIntHandler 01C5                                __pmaintext 00A6  
                              __pintentry 0004               __end_of_I2C_SlaveRdCallBack 018C  
           ??_I2C_SlaveSetWrColIntHandler 0030                                   _I2C_Isr 003D  
                                 _OSCTUNE 0098                                   _SSPCON1 0215  
                                 _SSPCON2 0216                                   _SSPSTAT 0214  
                               _I2C_Write 01EF                   I2C_SlaveSendTxData@data 0078  
                   _I2C_SlaveAddrCallBack 018C                            _I2C_Initialize 0199  
                                 __ptext1 0165                                   __ptext2 020E  
                                 __ptext3 0129                                   __ptext4 01A4  
                                 __ptext5 0199                                   __ptext6 00EA  
                                 __ptext7 01BF                                   __ptext8 01C5  
                                 __ptext9 01CB                                _read_state 0076  
                         ??_I2C_SlaveOpen 002E                     _OSCILLATOR_Initialize 01A4  
                ??_PIN_MANAGER_Initialize 002E             I2C_SlaveSetIsrHandler@handler 002E  
                                 clrloop0 01BA               __end_of_I2C_SlaveSendTxData 01FF  
                    end_of_initialization 0039               __end_of_I2C_SlaveWrCallBack 017F  
      __end_of_I2C_SlaveSetAddrIntHandler 01EF                _I2C_SlaveSetAddrIntHandler 01E9  
                              ?_I2C_Write 0078                        _I2C_SlaveEnableIrq 0216  
                      _I2C_SlaveGetRxData 0222                   ?_I2C_SlaveSetIsrHandler 002E  
                            _i2cSlaveAddr 0071                    __end_of_I2C_Initialize 01A4  
                 ??_I2C_SlaveReleaseClock 0078                       ?_I2C_SlaveEnableIrq 0078  
                     ?_I2C_SlaveGetRxData 0078        __end_of_I2C_SlaveSetReadIntHandler 01DD  
              _I2C_SlaveSetReadIntHandler 01D7                          ??_WDT_Initialize 002E  
            ?_I2C_SlaveSetWriteIntHandler 002E                                 _PORTAbits 000C  
           __end_of_I2C_SlaveIsTxBufEmpty 01B2                      ??_I2C_SlaveEnableIrq 002E  
                    ??_I2C_SlaveGetRxData 0078                   ??_I2C_SlaveSetSlaveAddr 002E  
                 ??_I2C_SlaveSetSlaveMask 002E            __end_of_I2C_SlaveSetIsrHandler 01E3  
                  ?_I2C_SlaveAddrCallBack 0078                          ??_ReadIntHandler 007A  
                         ?_I2C_Initialize 0078                                 _i2cRdData 0072  
                  ?_OSCILLATOR_Initialize 0078                                 _i2cWrData 0073  
                     start_initialization 0029                               ??_I2C_Write 0079  
                                ?_I2C_Isr 0078                               __pbssCOMMON 0070  
                               ___latbits 0002                             __pcstackBANK0 002E  
          ??_I2C_SlaveSetBusColIntHandler 0030                    _PIN_MANAGER_Initialize 0129  
            ??_INTERRUPT_InterruptManager 007C                         ??_I2C_SlaveIsAddr 0078  
                       ??_I2C_SlaveIsRead 0078          ??_I2C_SlaveDefRdInterruptHandler 0078  
         ?_I2C_SlaveDefRdInterruptHandler 0078          ??_I2C_SlaveDefWrInterruptHandler 0079  
         ?_I2C_SlaveDefWrInterruptHandler 0078                                  _I2C_Open 00EA  
             ?_I2C_SlaveSetAddrIntHandler 002E                                  _LATAbits 010C  
                               clear_ram0 01B9                                  _PIE1bits 0091  
                                _PIE2bits 0092                         _I2C_SlaveClearIrq 021C  
                                _PIR1bits 0011                                  _PIR2bits 0012  
                      ?_I2C_SlaveClearIrq 0078              __end_of_I2C_SlaveIsRxBufFull 0216  
                               _prog_data 0020               ?_I2C_SlaveSetReadIntHandler 002E  
           __end_of_I2C_SlaveReleaseClock 021C                       ??_I2C_SlaveClearIrq 0078  
                   __end_of_I2C_SlaveOpen 0165         _I2C_SlaveDefWrColInterruptHandler 0000  
               __end_of_I2C_SlaveClearIrq 021F             __end_of_I2C_SlaveSetSlaveAddr 01D7  
                              _EECON1bits 0195             __end_of_I2C_SlaveSetSlaveMask 01D1  
                        ??_I2C_Initialize 002E                   ??_I2C_SlaveAddrCallBack 0078  
                           I2C_Write@data 0079                   ??_OSCILLATOR_Initialize 002E  
           _I2C_SlaveAddrInterruptHandler 0026        _I2C_SlaveDefBusColInterruptHandler 0000  
          _I2C_SlaveWrColInterruptHandler 0022                                  __ptext10 01D1  
                                __ptext11 01D7                                  __ptext20 01F5  
                                __ptext12 01DD                                  __ptext21 0144  
                                __ptext13 01E3                                  __ptext30 01B2  
                                __ptext22 01EF                                  __ptext14 01E9  
                                __ptext31 021C                                  __ptext23 01FA  
                                __ptext15 0156                                  __ptext32 018C  
                                __ptext24 0219                                  __ptext16 0216  
                                __ptext33 021F                                  __ptext25 017F  
                                __ptext34 0209                                  __ptext26 01FF  
                                __ptext18 003D                                  __ptext35 0222  
                                __ptext27 01AB                                  __ptext19 0172  
                                __ptext28 0212                                  __ptext29 0204  
                   _I2C_SlaveIsTxBufEmpty 01AB              ?_I2C_SlaveSetWrColIntHandler 002E  
                                int$flags 007E        __end_of_INTERRUPT_InterruptManager 0027  
              _INTERRUPT_InterruptManager 0004                                _INTCONbits 000B  
                    _I2C_SlaveIsRxBufFull 0212                                  intlevel1 0000  
         _I2C_SlaveBusColInterruptHandler 0024                   ?_PIN_MANAGER_Initialize 0078  
                     _I2C_SlaveRdCallBack 017F                           _I2C_SlaveIsAddr 01B2  
                         _I2C_SlaveIsRead 0204                             _i2cSlaveState 0070  
      I2C_SlaveSetWriteIntHandler@handler 002E       __end_of_I2C_SlaveSetWriteIntHandler 01C5  
             _I2C_SlaveSetWriteIntHandler 01BF                      ?_I2C_SlaveRdCallBack 0078  
                  ?_I2C_SlaveIsTxBufEmpty 0078             ??_I2C_SlaveSetWriteIntHandler 0030  
                             _SSPCON1bits 0215                               _SSPCON2bits 0216  
                ??_I2C_SlaveSetIsrHandler 0030                     ?_I2C_SlaveIsRxBufFull 0078  
          __end_of_PIN_MANAGER_Initialize 0144    __end_of_I2C_SlaveDefRdInterruptHandler 0204  
          _I2C_SlaveDefRdInterruptHandler 01FF    __end_of_I2C_SlaveDefWrInterruptHandler 01FA  
          _I2C_SlaveDefWrInterruptHandler 01F5                     _MSSP_InterruptHandler 002C  
